******************************************************************************
            TI ARM Clang Linker PC v3.2.2                      
******************************************************************************
>> Linked Thu Aug  1 03:54:41 2024

OUTPUT FILE NAME:   <control.out>
ENTRY POINT SYMBOL: "_c_int00_noargs"  address: 00004501


MEMORY CONFIGURATION

         name            origin    length      used     unused   attr    fill
----------------------  --------  ---------  --------  --------  ----  --------
  FLASH                 00000000   00020000  00007c48  000183b8  R  X
  SRAM                  20200000   00008000  00000de8  00007218  RW X
  BCR_CONFIG            41c00000   00000080  00000000  00000080  R   
  BSL_CONFIG            41c00100   00000080  00000000  00000080  R   


SEGMENT ALLOCATION MAP

run origin  load origin   length   init length attrs members
----------  ----------- ---------- ----------- ----- -------
00000000    00000000    00007c48   00007c48    r-x
  00000000    00000000    000000c0   000000c0    r-- .intvecs
  000000c0    000000c0    00005040   00005040    r-x .text
  00005100    00005100    000028c8   000028c8    r-- .rodata
  000079c8    000079c8    00000008   00000008    r-- .init_array
  000079d0    000079d0    00000278   00000278    r-- .cinit
20200000    20200000    00000bea   00000000    rw-
  20200000    20200000    000009ba   00000000    rw- .data
  202009bc    202009bc    0000022e   00000000    rw- .bss
20207e00    20207e00    00000200   00000000    rw-
  20207e00    20207e00    00000200   00000000    rw- .stack


SECTION ALLOCATION MAP

 output                                  attributes/
section   page    origin      length       input sections
--------  ----  ----------  ----------   ----------------
.intvecs   0    00000000    000000c0     
                  00000000    000000c0     startup_mspm0g350x_ticlang.o (.intvecs)

.binit     0    00000000    00000000     

.text      0    000000c0    00005040     
                  000000c0    00000450     Chassis.o (.text._ZN7Chassis7HandlerEv)
                  00000510    000002f0     arm_cortexM0l_math.a : arm_sin_cos_f32.o (.text.arm_sin_cos_f32)
                  00000800    000002c4     Controller.o (.text._ZN10Controller7HandlerEv)
                  00000ac4    00000298     Chassis.o (.text._ZN7Chassis7processEv)
                  00000d5c    000001f8     IMU.o (.text._ZN3IMU8get_dataEv)
                  00000f54    000001cc     Remote.o (.text._ZN6Remote12process_dataEv)
                  00001120    000001c8     libc.a : s_atanf.c.obj (.text.atanf)
                  000012e8    00000198     N20_Motor.o (.text._ZN9N20_Motor16output_intensityEv)
                  00001480    00000192     libclang_rt.builtins.a : adddf3.S.obj (.text.adddf3_subdf3)
                  00001612    00000002                            : aeabi_div0.c.obj (.text.__aeabi_idiv0)
                  00001614    0000015c     ti_msp_dl_config.o (.text.SYSCFG_DL_GPIO_init)
                  00001770    00000130     libc.a : e_atan2f.c.obj (.text.atan2f)
                  000018a0    00000120     N20_Motor.o (.text._ZN9N20_Motor17measure_parameterEv)
                  000019c0    00000118     task.o (.text.task_handler)
                  00001ad8    00000114     IMU.o (.text._ZN3IMU4initEv)
                  00001bec    00000110     driverlib.a : dl_timer.o (.text.DL_Timer_initPWMMode)
                  00001cfc    0000010c     libclang_rt.builtins.a : divdf3.S.obj (.text.__divdf3)
                  00001e08    000000f4     LS7366R.o (.text._ZN7LS7366R4initEhh)
                  00001efc    000000ec     driverlib.a : dl_sysctl_mspm0g1x0x_g3x0x.o (.text.DL_SYSCTL_configSYSPLL)
                  00001fe8    000000ec                 : dl_timer.o (.text.DL_TimerA_initPWMMode)
                  000020d4    000000e8     imu660.o (.text.imu660ra_init)
                  000021bc    000000e4     ti_msp_dl_config.o (.text.SYSCFG_DL_initPower)
                  000022a0    000000e4     libclang_rt.builtins.a : muldf3.S.obj (.text.__muldf3)
                  00002384    000000d8                            : addsf3.S.obj (.text)
                  0000245c    000000c4     task.o (.text.loop)
                  00002520    000000c0     task.o (.text._Z10test_powerv)
                  000025e0    000000c0     CCD.o (.text._ZN3CCD7SI_sendEv)
                  000026a0    000000bc     task.o (.text.setup)
                  0000275c    000000b0     task.o (.text.UART0_IRQHandler)
                  0000280c    000000ae     LS7366R.o (.text._ZN7LS7366R7HandlerEv)
                  000028ba    00000002     --HOLE-- [fill = 0]
                  000028bc    000000a8     libc.a : e_sqrtf.c.obj (.text.sqrtf)
                  00002964    000000a2     PID_Controller.o (.text._ZN14PID_Controller7HandlerEv)
                  00002a06    00000002     --HOLE-- [fill = 0]
                  00002a08    0000009c     ti_msp_dl_config.o (.text.SYSCFG_DL_ADC_CCD_init)
                  00002aa4    0000008c     libclang_rt.builtins.a : mulsf3.S.obj (.text.__mulsf3)
                  00002b30    00000088     ti_msp_dl_config.o (.text.SYSCFG_DL_PWM_MOTOR0_init)
                  00002bb8    00000088     ti_msp_dl_config.o (.text.SYSCFG_DL_TIM_CCD_init)
                  00002c40    00000084     ti_msp_dl_config.o (.text.SYSCFG_DL_PWM_MOTOR1_init)
                  00002cc4    00000084     ti_msp_dl_config.o (.text.__NVIC_SetPriority)
                  00002d48    00000082     libclang_rt.builtins.a : divsf3.S.obj (.text.__divsf3)
                  00002dca    00000082     hal.o (.text.spi_read_8bit_registers)
                  00002e4c    00000078     libc.a : copy_decompress_lzss.c.obj (.text:decompress:lzss)
                  00002ec4    0000000c     driverlib.a : dl_sysctl_mspm0g1x0x_g3x0x.o (.text.DL_SYSCTL_getClockStatus)
                  00002ed0    00000074     libclang_rt.builtins.a : truncdfsf2.S.obj (.text.__truncdfsf2)
                  00002f44    00000070     task.o (.text._Z14signal_Handlerv)
                  00002fb4    00000070     imu660.o (.text._ZL23imu660ra_read_registershPhj)
                  00003024    00000068     ti_msp_dl_config.o (.text.SYSCFG_DL_ADC_VIN_init)
                  0000308c    00000068     ti_msp_dl_config.o (.text.SYSCFG_DL_init)
                  000030f4    00000064     driverlib.a : dl_sysctl_mspm0g1x0x_g3x0x.o (.text.DL_SYSCTL_setHFCLKSourceHFXTParams)
                  00003158    00000062     libclang_rt.builtins.a : aeabi_fcmp.S.obj (.text.__aeabi_fcmp)
                  000031ba    00000002     --HOLE-- [fill = 0]
                  000031bc    00000060     ti_msp_dl_config.o (.text.SYSCFG_DL_PWM_BUZZER_init)
                  0000321c    0000005a     hal.o (.text.SPI_transmitData)
                  00003276    00000002     --HOLE-- [fill = 0]
                  00003278    00000058     Chassis.o (.text._ZN7ChassisC2EP9N20_MotorS1_P3IMUP3CCDf)
                  000032d0    00000054     driverlib.a : dl_dma.o (.text.DL_DMA_configTransfer)
                  00003324    00000054     ti_msp_dl_config.o (.text.SYSCFG_DL_UART_0_init)
                  00003378    00000054     libc.a : autoinit.c.obj (.text:__TI_auto_init_nobinit)
                  000033cc    00000050     task.o (.text.ADC1_IRQHandler)
                  0000341c    00000050     ti_msp_dl_config.o (.text.SysTick_Config)
                  0000346c    00000050     it.o (.text.SysTick_Handler)
                  000034bc    0000004e     imu660.o (.text._ZL19imu660ra_self_checkv)
                  0000350a    00000002     --HOLE-- [fill = 0]
                  0000350c    0000004c     ti_msp_dl_config.o (.text.DL_ADC12_initSingleSample)
                  00003558    0000004c     driverlib.a : dl_adc12.o (.text.DL_ADC12_setClockConfig)
                  000035a4    0000004c                 : dl_sysctl_mspm0g1x0x_g3x0x.o (.text.DL_SYSCTL_switchMCLKfromSYSOSCtoHSCLK)
                  000035f0    0000004c                 : dl_uart.o (.text.DL_UART_init)
                  0000363c    0000004c     ti_msp_dl_config.o (.text.DL_UART_setBaudRateDivisor)
                  00003688    0000004a     ti_msp_dl_config.o (.text.DL_ADC12_configConversionMem)
                  000036d2    0000004a     task.o (.text._Z13UART_TransmitP9UART_RegsPht)
                  0000371c    0000004a     N20_Motor.o (.text._ZN9N20_MotorC2EP12GPTIMER_Regs17DL_TIMER_CC_INDEXS2_P7Encoderfff)
                  00003766    00000002     --HOLE-- [fill = 0]
                  00003768    0000004a     libclang_rt.builtins.a : fixdfsi.S.obj (.text.__fixdfsi)
                  000037b2    00000002     --HOLE-- [fill = 0]
                  000037b4    00000048     driverlib.a : dl_spi.o (.text.DL_SPI_init)
                  000037fc    00000048     ti_msp_dl_config.o (.text.SYSCFG_DL_SYSCTL_init)
                  00003844    00000048     Controller.o (.text._ZN10ControllerC2EP7Chassis)
                  0000388c    00000048     CCD.o (.text._ZN3CCD7HandlerEv)
                  000038d4    00000048     LS7366R.o (.text._ZN7LS7366R5resetEv)
                  0000391c    00000048     imu660.o (.text.imu660ra_get_acc)
                  00003964    00000048     imu660.o (.text.imu660ra_get_gyro)
                  000039ac    00000046     driverlib.a : dl_dma.o (.text.DL_DMA_initChannel)
                  000039f2    00000002     --HOLE-- [fill = 0]
                  000039f4    00000044     imu660.o (.text._ZL22imu660ra_read_registerh)
                  00003a38    00000040     driverlib.a : dl_timer.o (.text.DL_Timer_setCaptureCompareOutCtl)
                  00003a78    00000040     ti_msp_dl_config.o (.text.SYSCFG_DL_SPI_ENCODER_init)
                  00003ab8    00000040     ti_msp_dl_config.o (.text.SYSCFG_DL_SPI_IMU_init)
                  00003af8    00000040     imu660.o (.text._ZL23imu660ra_write_registerhh)
                  00003b38    00000040     imu660.o (.text._ZL24imu660ra_write_registershPKhj)
                  00003b78    00000040     libclang_rt.builtins.a : aeabi_uidivmod.S.obj (.text.__aeabi_uidivmod)
                  00003bb8    00000040                            : extendsfdf2.S.obj (.text.__extendsfdf2)
                  00003bf8    0000003c     ti_msp_dl_config.o (.text.DL_GPIO_initPeripheralInputFunctionFeatures)
                  00003c34    0000003c     driverlib.a : dl_timer.o (.text.DL_Timer_setCaptureCompareCtl)
                  00003c70    0000003c     PID_Controller.o (.text._ZN14PID_ControllerC2EP7Chassis)
                  00003cac    0000003c     libclang_rt.builtins.a : floatsisf.S.obj (.text.__floatsisf)
                  00003ce8    0000003c                            : comparesf2.S.obj (.text.__gtsf2)
                  00003d24    0000003a                            : comparesf2.S.obj (.text.__eqsf2)
                  00003d5e    00000002     --HOLE-- [fill = 0]
                  00003d60    0000003a                            : muldsi3.S.obj (.text.__muldsi3)
                  00003d9a    00000002     --HOLE-- [fill = 0]
                  00003d9c    00000038     driverlib.a : dl_dma.o (.text.DL_DMA_setTrigger)
                  00003dd4    00000038     ti_msp_dl_config.o (.text.DL_Timer_setPublisherChanID)
                  00003e0c    00000038     task.o (.text.__cxx_global_var_init.3)
                  00003e44    00000038     task.o (.text.__cxx_global_var_init.4)
                  00003e7c    00000038     libclang_rt.builtins.a : fixsfsi.S.obj (.text.__fixsfsi)
                  00003eb4    00000034     driverlib.a : dl_i2c.o (.text.DL_I2C_setClockConfig)
                  00003ee8    00000034                 : dl_timer.o (.text.DL_Timer_setCaptCompUpdateMethod)
                  00003f1c    00000034                 : dl_timer.o (.text.DL_Timer_setCaptureCompareAction)
                  00003f50    00000034                 : dl_timer.o (.text.DL_Timer_setCaptureCompareInput)
                  00003f84    00000034                 : dl_timer.o (.text.DL_Timer_setClockConfig)
                  00003fb8    00000034     task.o (.text._GLOBAL__sub_I_task.cpp)
                  00003fec    00000034     CCD.o (.text._ZL17__NVIC_DisableIRQ4IRQn)
                  00004020    00000034     task.o (.text.__cxx_global_var_init.9)
                  00004054    00000032     hal.o (.text.spi_write_8bit_register)
                  00004086    00000002     --HOLE-- [fill = 0]
                  00004088    00000030     ti_msp_dl_config.o (.text.DL_SPI_setFIFOThreshold)
                  000040b8    00000030     task.o (.text._ZL21DL_ADC12_getMemResultP10ADC12_Regs16DL_ADC12_MEM_IDX)
                  000040e8    00000030     CCD.o (.text._ZL22DL_DMA_setTransferSizeP8DMA_Regsht)
                  00004118    00000030     hal.o (.text.spi_write_8bit_registers)
                  00004148    0000002c     task.o (.text.ADC0_IRQHandler)
                  00004174    0000002c     ti_msp_dl_config.o (.text.DL_ADC12_setDMASamplesCnt)
                  000041a0    0000002c     driverlib.a : dl_timer.o (.text.DL_Timer_setCaptureCompareValue)
                  000041cc    0000002c     ti_msp_dl_config.o (.text.SYSCFG_DL_I2C_0_init)
                  000041f8    0000002c     CCD.o (.text._ZL16__NVIC_EnableIRQ4IRQn)
                  00004224    0000002c     task.o (.text._ZL16__NVIC_EnableIRQ4IRQn)
                  00004250    0000002c     task.o (.text._ZL22__NVIC_ClearPendingIRQ4IRQn)
                  0000427c    0000002c     libclang_rt.builtins.a : floatsidf.S.obj (.text.__floatsidf)
                  000042a8    00000028     driverlib.a : dl_adc12.o (.text.DL_Common_updateReg)
                  000042d0    00000028                 : dl_dma.o (.text.DL_Common_updateReg)
                  000042f8    00000028                 : dl_i2c.o (.text.DL_Common_updateReg)
                  00004320    00000028                 : dl_spi.o (.text.DL_Common_updateReg)
                  00004348    00000028                 : dl_sysctl_mspm0g1x0x_g3x0x.o (.text.DL_Common_updateReg)
                  00004370    00000028                 : dl_timer.o (.text.DL_Common_updateReg)
                  00004398    00000028                 : dl_uart.o (.text.DL_Common_updateReg)
                  000043c0    00000028     ti_msp_dl_config.o (.text.DL_Common_updateReg)
                  000043e8    00000028     ti_msp_dl_config.o (.text.DL_Timer_enableEvent)
                  00004410    00000028     CCD.o (.text._ZL17DL_DMA_setSrcAddrP8DMA_Regshj)
                  00004438    00000028     CCD.o (.text._ZL18DL_DMA_setDestAddrP8DMA_Regshj)
                  00004460    00000028     LS7366R.o (.text._ZN7LS7366RC2EP8SPI_RegsP9GPIO_Regsjj)
                  00004488    00000028     task.o (.text.__cxx_global_var_init)
                  000044b0    00000028     libclang_rt.builtins.a : floatunsisf.S.obj (.text.__floatunsisf)
                  000044d8    00000028     it.o (.text.delay_ms)
                  00004500    00000028     libc.a : boot_cortex_m.c.obj (.text:_c_int00_noargs)
                  00004528    00000026     ti_msp_dl_config.o (.text.DL_I2C_setAnalogGlitchFilterPulseWidth)
                  0000454e    00000026     CCD.o (.text._ZL20DL_DMA_enableChannelP8DMA_Regsh)
                  00004574    00000026     task.o (.text._ZL21DL_DMA_disableChannelP8DMA_Regsh)
                  0000459a    00000026     Remote.o (.text._ZN6RemoteC2EP9UART_Regs)
                  000045c0    00000024     ti_msp_dl_config.o (.text.DL_SPI_setBitRateSerialClockDivider)
                  000045e4    00000024     driverlib.a : dl_spi.o (.text.DL_SPI_setClockConfig)
                  00004608    00000024                 : dl_uart.o (.text.DL_UART_setClockConfig)
                  0000462c    00000024     CCD.o (.text._ZL28DL_ADC12_getMemResultAddressP10ADC12_Regs16DL_ADC12_MEM_IDX)
                  00004650    00000024     CCD.o (.text._ZN3CCD4initEv)
                  00004674    00000024     N20_Motor.o (.text._ZN9N20_Motor12pwm_set_dutyE17DL_TIMER_CC_INDEXt)
                  00004698    00000022     task.o (.text._ZN3CCDC2Ev)
                  000046ba    00000022     task.o (.text._ZN3IMUC2Ev)
                  000046dc    00000022     Encoder.o (.text._ZN7Encoder7HandlerEv)
                  000046fe    00000002     --HOLE-- [fill = 0]
                  00004700    00000020     ti_msp_dl_config.o (.text.DL_ADC12_setStartAddress)
                  00004720    00000020     driverlib.a : dl_sysctl_mspm0g1x0x_g3x0x.o (.text.DL_CORE_configInstruction)
                  00004740    00000020     ti_msp_dl_config.o (.text.DL_GPIO_initPeripheralInputFunction)
                  00004760    00000020     ti_msp_dl_config.o (.text.DL_SYSCTL_setFlashWaitState)
                  00004780    00000020     driverlib.a : dl_sysctl_mspm0g1x0x_g3x0x.o (.text.DL_SYSCTL_setHFXTFrequencyRange)
                  000047a0    00000020                 : dl_timer.o (.text.DL_Timer_setCounterValueAfterEnable)
                  000047c0    0000001e     ti_msp_dl_config.o (.text.DL_ADC12_setPowerDownMode)
                  000047de    0000001e     ti_msp_dl_config.o (.text.DL_UART_setOversampling)
                  000047fc    0000001e     IMU.o (.text._ZN3IMU7HandlerEv)
                  0000481a    00000002     --HOLE-- [fill = 0]
                  0000481c    0000001c     ti_msp_dl_config.o (.text.DL_ADC12_clearInterruptStatus)
                  00004838    0000001c     ti_msp_dl_config.o (.text.DL_ADC12_enableDMA)
                  00004854    0000001c     ti_msp_dl_config.o (.text.DL_ADC12_enableDMATrigger)
                  00004870    0000001c     ti_msp_dl_config.o (.text.DL_ADC12_enableInterrupt)
                  0000488c    0000001c     ti_msp_dl_config.o (.text.DL_GPIO_enableHiZ)
                  000048a8    0000001c     ti_msp_dl_config.o (.text.DL_GPIO_initPeripheralOutputFunction)
                  000048c4    0000001c     ti_msp_dl_config.o (.text.DL_SYSCTL_setSYSOSCFreq)
                  000048e0    0000001c     ti_msp_dl_config.o (.text.DL_SYSCTL_setULPCLKDivider)
                  000048fc    0000001c     ti_msp_dl_config.o (.text.DL_Timer_enableInterrupt)
                  00004918    0000001c     ti_msp_dl_config.o (.text.DL_UART_enableInterrupt)
                  00004934    0000001c     task.o (.text.TIMG12_IRQHandler)
                  00004950    0000001c     task.o (.text._ZL24DL_ADC12_startConversionP10ADC12_Regs)
                  0000496c    0000001a     ti_msp_dl_config.o (.text.DL_ADC12_setSubscriberChanID)
                  00004986    0000001a     Encoder.o (.text._ZN7EncoderC2EPl)
                  000049a0    00000018     ti_msp_dl_config.o (.text.DL_ADC12_enablePower)
                  000049b8    00000018     ti_msp_dl_config.o (.text.DL_ADC12_reset)
                  000049d0    00000018     ti_msp_dl_config.o (.text.DL_ADC12_setSampleTime0)
                  000049e8    00000018     ti_msp_dl_config.o (.text.DL_GPIO_enableOutput)
                  00004a00    00000018     ti_msp_dl_config.o (.text.DL_GPIO_enablePower)
                  00004a18    00000018     ti_msp_dl_config.o (.text.DL_GPIO_initDigitalOutput)
                  00004a30    00000018     ti_msp_dl_config.o (.text.DL_GPIO_initPeripheralAnalogFunction)
                  00004a48    00000018     ti_msp_dl_config.o (.text.DL_GPIO_reset)
                  00004a60    00000018     ti_msp_dl_config.o (.text.DL_I2C_enableAnalogGlitchFilter)
                  00004a78    00000018     ti_msp_dl_config.o (.text.DL_I2C_enablePower)
                  00004a90    00000018     ti_msp_dl_config.o (.text.DL_I2C_reset)
                  00004aa8    00000018     ti_msp_dl_config.o (.text.DL_SPI_enable)
                  00004ac0    00000018     ti_msp_dl_config.o (.text.DL_SPI_enablePower)
                  00004ad8    00000018     ti_msp_dl_config.o (.text.DL_SPI_reset)
                  00004af0    00000018     ti_msp_dl_config.o (.text.DL_SYSCTL_setBORThreshold)
                  00004b08    00000018     driverlib.a : dl_sysctl_mspm0g1x0x_g3x0x.o (.text.DL_SYSCTL_setHFXTStartupTime)
                  00004b20    00000018                 : dl_sysctl_mspm0g1x0x_g3x0x.o (.text.DL_SYSCTL_setHSCLKSource)
                  00004b38    00000018     ti_msp_dl_config.o (.text.DL_Timer_enablePower)
                  00004b50    00000018     ti_msp_dl_config.o (.text.DL_Timer_reset)
                  00004b68    00000018     driverlib.a : dl_timer.o (.text.DL_Timer_setLoadValue)
                  00004b80    00000018     ti_msp_dl_config.o (.text.DL_UART_enablePower)
                  00004b98    00000018     ti_msp_dl_config.o (.text.DL_UART_reset)
                  00004bb0    00000018     ti_msp_dl_config.o (.text.SYSCFG_DL_DMA_CH0_init)
                  00004bc8    00000018     hal.o (.text._ZL13DL_SPI_isBusyP8SPI_Regs)
                  00004be0    00000018     task.o (.text._ZL14DL_UART_isBusyP9UART_Regs)
                  00004bf8    00000018     CCD.o (.text._ZL15DL_GPIO_setPinsP9GPIO_Regsj)
                  00004c10    00000018     LS7366R.o (.text._ZL15DL_GPIO_setPinsP9GPIO_Regsj)
                  00004c28    00000018     imu660.o (.text._ZL15DL_GPIO_setPinsP9GPIO_Regsj)
                  00004c40    00000018     task.o (.text._ZL15DL_GPIO_setPinsP9GPIO_Regsj)
                  00004c58    00000018     it.o (.text._ZL18DL_GPIO_togglePinsP9GPIO_Regsj)
                  00004c70    00000018     hal.o (.text._ZL20DL_SPI_isRXFIFOEmptyP8SPI_Regs)
                  00004c88    00000018     Buzzer.o (.text._ZL20DL_Timer_stopCounterP12GPTIMER_Regs)
                  00004ca0    00000018     Buzzer.o (.text._ZL21DL_Timer_startCounterP12GPTIMER_Regs)
                  00004cb8    00000018     CCD.o (.text._ZL21DL_Timer_startCounterP12GPTIMER_Regs)
                  00004cd0    00000018     N20_Motor.o (.text._ZL21DL_Timer_startCounterP12GPTIMER_Regs)
                  00004ce8    00000018     N20_Motor.o (.text._ZN9N20_Motor7HandlerEv)
                  00004d00    00000018     task.o (.text.__cxx_global_var_init.1)
                  00004d18    00000018     task.o (.text.__cxx_global_var_init.2)
                  00004d30    00000018     control.o (.text.main)
                  00004d48    00000016     ti_msp_dl_config.o (.text.DL_ADC12_enableConversions)
                  00004d5e    00000016     driverlib.a : dl_uart.o (.text.DL_UART_disable)
                  00004d74    00000016     ti_msp_dl_config.o (.text.DL_UART_enable)
                  00004d8a    00000016     hal.o (.text._ZL20DL_SPI_transmitData8P8SPI_Regsh)
                  00004da0    00000016     task.o (.text._ZL20DL_UART_transmitDataP9UART_Regsh)
                  00004db6    00000016     CCD.o (.text._ZL26DL_ADC12_enableConversionsP10ADC12_Regs)
                  00004dcc    00000016     task.o (.text._ZL26DL_ADC12_enableConversionsP10ADC12_Regs)
                  00004de2    00000016     task.o (.text._ZL27DL_ADC12_disableConversionsP10ADC12_Regs)
                  00004df8    00000016     libc.a : copy_zero_init.c.obj (.text:decompress:ZI:__TI_zero_init_nomemset)
                  00004e0e    00000014     driverlib.a : dl_common.o (.text.DL_Common_delayCycles)
                  00004e22    00000014     ti_msp_dl_config.o (.text.DL_GPIO_clearPins)
                  00004e36    00000002     --HOLE-- [fill = 0]
                  00004e38    00000014     driverlib.a : dl_sysctl_mspm0g1x0x_g3x0x.o (.text.DL_SYSCTL_disableHFCLKStartupMonitor)
                  00004e4c    00000014                 : dl_sysctl_mspm0g1x0x_g3x0x.o (.text.DL_SYSCTL_disableSYSPLL)
                  00004e60    00000014     ti_msp_dl_config.o (.text.DL_SYSCTL_disableSYSPLL)
                  00004e74    00000014     driverlib.a : dl_sysctl_mspm0g1x0x_g3x0x.o (.text.DL_SYSCTL_enableHFCLKStartupMonitor)
                  00004e88    00000014     ti_msp_dl_config.o (.text.DL_Timer_enableClock)
                  00004e9c    00000014     ti_msp_dl_config.o (.text.DL_Timer_setCCPDirection)
                  00004eb0    00000014     Controller.o (.text._Z5atan2B6v15007ff)
                  00004ec4    00000014     CCD.o (.text._ZL17DL_GPIO_clearPinsP9GPIO_Regsj)
                  00004ed8    00000014     LS7366R.o (.text._ZL17DL_GPIO_clearPinsP9GPIO_Regsj)
                  00004eec    00000014     imu660.o (.text._ZL17DL_GPIO_clearPinsP9GPIO_Regsj)
                  00004f00    00000014     task.o (.text._ZL17DL_GPIO_clearPinsP9GPIO_Regsj)
                  00004f14    00000014     hal.o (.text._ZL19DL_SPI_receiveData8P8SPI_Regs)
                  00004f28    00000014     task.o (.text._ZL19DL_UART_receiveDataP9UART_Regs)
                  00004f3c    00000014     N20_Motor.o (.text._ZN5MotorC2Ev)
                  00004f50    00000014     Remote.o (.text._ZN6Remote7HandlerEv)
                  00004f64    00000014     task.o (.text.__cxx_global_var_init.10)
                  00004f78    00000014     task.o (.text.__cxx_global_var_init.11)
                  00004f8c    00000014     task.o (.text.__cxx_global_var_init.6)
                  00004fa0    00000014     task.o (.text.__cxx_global_var_init.8)
                  00004fb4    00000012     task.o (.text._ZL28DL_ADC12_getPendingInterruptP10ADC12_Regs)
                  00004fc6    00000012     Buzzer.o (.text._ZN6Buzzer4stopEv)
                  00004fd8    00000012     Buzzer.o (.text._ZN6Buzzer5startEv)
                  00004fea    00000012     N20_Motor.o (.text._ZN9N20_Motor4initEv)
                  00004ffc    00000012     libc.a : memcpy16.S.obj (.text:TI_memcpy_small)
                  0000500e    00000012            : copy_decompress_none.c.obj (.text:decompress:none)
                  00005020    00000010     driverlib.a : dl_sysctl_mspm0g1x0x_g3x0x.o (.text.DL_CORE_getInstructionConfig)
                  00005030    00000010                 : dl_sysctl_mspm0g1x0x_g3x0x.o (.text.DL_SYSCTL_disableHFXT)
                  00005040    00000010     ti_msp_dl_config.o (.text.DL_SYSCTL_disableHFXT)
                  00005050    00000010     ti_msp_dl_config.o (.text.SYSCFG_DL_SYSTICK_init)
                  00005060    00000010     Buzzer.o (.text._ZN6BuzzerC2EP12GPTIMER_Regs)
                  00005070    00000010     task.o (.text.__cxx_global_var_init.5)
                  00005080    00000010     task.o (.text.__cxx_global_var_init.7)
                  00005090    00000008     ti_msp_dl_config.o (.text.SYSCFG_DL_DMA_init)
                  00005098    00000008     libc.a : aeabi_portable.c.obj (.text.__aeabi_errno_addr)
                  000050a0    00000008     libclang_rt.builtins.a : aeabi_memcpy.S.obj (.text.__aeabi_memcpy)
                  000050a8    00000006     libc.a : s_atanf.c.obj (.text.OUTLINED_FUNCTION_0)
                  000050ae    00000002     --HOLE-- [fill = 0]
                  000050b0    00000010     libclang_rt.builtins.a : divsf3.S.obj (.tramp.__aeabi_fdiv.1)
                  000050c0    00000004     startup_mspm0g350x_ticlang.o (.text.Default_Handler)
                  000050c4    00000004     libc.a : s_atanf.c.obj (.text.OUTLINED_FUNCTION_1)
                  000050c8    00000010     libclang_rt.builtins.a : addsf3.S.obj (.tramp.__aeabi_fadd.1)
                  000050d8    00000004     startup_mspm0g350x_ticlang.o (.text.Reset_Handler)
                  000050dc    00000010     libc.a : boot_cortex_m.c.obj (.tramp._c_int00_noargs.1)
                  000050ec    00000004            : pre_init.c.obj (.text._system_pre_init)
                  000050f0    00000004            : exit.c.obj (.text:abort)
                  000050f4    0000000c     --HOLE-- [fill = 0]

.cinit     0    000079d0    00000278     
                  000079d0    0000024d     (.cinit..data.load) [load image, compression = lzss]
                  00007c1d    00000003     --HOLE-- [fill = 0]
                  00007c20    0000000c     (__TI_handler_table)
                  00007c2c    00000008     (.cinit..bss.load) [load image, compression = zero_init]
                  00007c34    00000010     (__TI_cinit_table)
                  00007c44    00000004     --HOLE-- [fill = 0]

.rodata    0    00005100    000028c8     
                  00005100    00002000     imu660.o (.rodata._ZL20imu660ra_config_file)
                  00007100    00000804     arm_cortexM0l_math.a : arm_common_tables.o (.rodata.sinTable_f32)
                  00007904    00000028     ti_msp_dl_config.o (.rodata.gSYSPLLConfig)
                  0000792c    00000020     libc.a : s_atanf.c.obj (.rodata.cst16)
                  0000794c    00000018     ti_msp_dl_config.o (.rodata.gDMA_CH0Config)
                  00007964    0000000a     ti_msp_dl_config.o (.rodata.gSPI_ENCODER_config)
                  0000796e    0000000a     ti_msp_dl_config.o (.rodata.gSPI_IMU_config)
                  00007978    0000000a     ti_msp_dl_config.o (.rodata.gUART_0Config)
                  00007982    00000002     ti_msp_dl_config.o (.rodata.gI2C_0ClockConfig)
                  00007984    00000008     ti_msp_dl_config.o (.rodata.gADC_CCDClockConfig)
                  0000798c    00000008     ti_msp_dl_config.o (.rodata.gADC_VINClockConfig)
                  00007994    00000008     ti_msp_dl_config.o (.rodata.gPWM_BUZZERConfig)
                  0000799c    00000008     ti_msp_dl_config.o (.rodata.gPWM_MOTOR0Config)
                  000079a4    00000008     ti_msp_dl_config.o (.rodata.gPWM_MOTOR1Config)
                  000079ac    00000008     ti_msp_dl_config.o (.rodata.gTIM_CCDConfig)
                  000079b4    00000003     ti_msp_dl_config.o (.rodata.gPWM_BUZZERClockConfig)
                  000079b7    00000003     ti_msp_dl_config.o (.rodata.gPWM_MOTOR0ClockConfig)
                  000079ba    00000003     ti_msp_dl_config.o (.rodata.gPWM_MOTOR1ClockConfig)
                  000079bd    00000003     ti_msp_dl_config.o (.rodata.gTIM_CCDClockConfig)
                  000079c0    00000002     ti_msp_dl_config.o (.rodata.gSPI_ENCODER_clockConfig)
                  000079c2    00000002     ti_msp_dl_config.o (.rodata.gSPI_IMU_clockConfig)
                  000079c4    00000002     ti_msp_dl_config.o (.rodata.gUART_0ClockConfig)
                  000079c6    00000002     --HOLE-- [fill = 0]

.init_array 
*          0    000079c8    00000008     
                  000079c8    00000004     task.o (.init_array)
                  000079cc    00000004     --HOLE-- [fill = 0]

.data      0    20200000    000009ba     UNINITIALIZED
                  20200000    000002d8     task.o (.data.chassis)
                  202002d8    00000200     Chassis.o (.data.ccd_norm)
                  202004d8    00000194     task.o (.data.ccd)
                  2020066c    000000dc     task.o (.data.remote)
                  20200748    00000080     task.o (.data.temp_rx)
                  202007c8    00000050     task.o (.data.controller)
                  20200818    00000050     task.o (.data.imu)
                  20200868    0000002c     task.o (.data.left_motor)
                  20200894    0000002c     task.o (.data.pid_controller)
                  202008c0    0000002c     task.o (.data.right_motor)
                  202008ec    00000024     task.o (.data.ls7366r)
                  20200910    00000014     task.o (.data.left_encoder)
                  20200924    00000014     task.o (.data.right_encoder)
                  20200938    00000010     task.o (.data._ZZ12task_handlerE7x_array)
                  20200948    00000010     task.o (.data._ZZ12task_handlerE7y_array)
                  20200958    00000008     imu660.o (.data.imu660ra_transition_factor)
                  20200960    00000004     task.o (.data.ADC_VIN_cnt)
                  20200964    00000004     task.o (.data.ADC_cnt)
                  20200968    00000004     task.o (.data.CCD_cnt)
                  2020096c    00000004     CCD.o (.data.DMA_EN_cnt)
                  20200970    00000004     task.o (.data._ZZ12task_handlerE5index)
                  20200974    00000004     task.o (.data._ZZ12task_handlerE9array_len)
                  20200978    00000004     task.o (.data._ZZ14signal_HandlervE10temp_utick)
                  2020097c    00000004     libc.a : aeabi_portable.c.obj (.data.__aeabi_errno)
                  20200980    00000004     task.o (.data.buzzer)
                  20200984    00000004     Remote.o (.data.crc_err)
                  20200988    00000004     imu660.o (.data.imu660ra_state)
                  2020098c    00000004     Remote.o (.data.remote_cnt)
                  20200990    00000004     task.o (.data.uart1_cnt)
                  20200994    00000004     task.o (.data.uart1_state)
                  20200998    00000004     it.o (.data.utick)
                  2020099c    00000004     task.o (.data.vin)
                  202009a0    00000002     Remote.o (.data.crc1)
                  202009a2    00000002     task.o (.data.end_flag)
                  202009a4    00000002     imu660.o (.data.imu660ra_acc_x)
                  202009a6    00000002     imu660.o (.data.imu660ra_acc_y)
                  202009a8    00000002     imu660.o (.data.imu660ra_acc_z)
                  202009aa    00000002     imu660.o (.data.imu660ra_gyro_x)
                  202009ac    00000002     imu660.o (.data.imu660ra_gyro_y)
                  202009ae    00000002     imu660.o (.data.imu660ra_gyro_z)
                  202009b0    00000002     task.o (.data.power_vin)
                  202009b2    00000002     task.o (.data.start_flag)
                  202009b4    00000002     task.o (.data.uart1_rx_len)
                  202009b6    00000001     task.o (.data._ZZ10test_powervE10power_flag)
                  202009b7    00000001     task.o (.data.gCheckADC)
                  202009b8    00000001     task.o (.data.init_flag)
                  202009b9    00000001     task.o (.data.signal_en_flag)

.bss       0    202009bc    0000022e     UNINITIALIZED
                  202009bc    000000bc     (.common:gPWM_MOTOR0Backup)
                  20200a78    000000bc     (.common:gPWM_MOTOR1Backup)
                  20200b34    00000064     task.o (.bss.uart1_rx_buf)
                  20200b98    00000028     (.common:gSPI_ENCODERBackup)
                  20200bc0    00000028     (.common:gSPI_IMUBackup)
                  20200be8    00000002     Remote.o (.bss.crc)

.stack     0    20207e00    00000200     UNINITIALIZED
                  20207e00    00000004     libc.a : boot_cortex_m.c.obj (.stack)
                  20207e04    000001fc     --HOLE--

__llvm_prf_cnts 
*          0    20200000    00000000     UNINITIALIZED

__llvm_prf_bits 
*          0    20200000    00000000     UNINITIALIZED

MODULE SUMMARY

       Module                         code    ro data   rw data
       ------                         ----    -------   -------
    .\
       ti_msp_dl_config.o             3674    162       456    
       startup_mspm0g350x_ticlang.o   8       192       0      
       control.o                      24      0         0      
    +--+------------------------------+-------+---------+---------+
       Total:                         3706    354       456    
                                                               
    .\code\
       imu660.o                       806     8192      24     
       task.o                         2228    4         2032   
       Chassis.o                      1856    0         512    
       N20_Motor.o                    892     0         0      
       IMU.o                          810     0         0      
       Controller.o                   800     0         0      
       CCD.o                          688     0         4      
       LS7366R.o                      574     0         0      
       Remote.o                       518     0         12     
       hal.o                          408     0         0      
       PID_Controller.o               222     0         0      
       it.o                           144     0         4      
       Buzzer.o                       100     0         0      
       Encoder.o                      60      0         0      
    +--+------------------------------+-------+---------+---------+
       Total:                         10106   8196      2588   
                                                               
    C:/ti/mspm0_sdk_2_01_00_03/source/third_party/CMSIS/DSP/lib/ticlang/m0p/arm_cortexM0l_math.a
       arm_common_tables.o            0       2052      0      
       arm_sin_cos_f32.o              752     0         0      
    +--+------------------------------+-------+---------+---------+
       Total:                         752     2052      0      
                                                               
    C:/ti/mspm0_sdk_2_01_00_03/source/ti/driverlib/lib/ticlang/m0p/mspm0g1x0x_g3x0x/driverlib.a
       dl_timer.o                     980     0         0      
       dl_sysctl_mspm0g1x0x_g3x0x.o   668     0         0      
       dl_dma.o                       250     0         0      
       dl_uart.o                      174     0         0      
       dl_spi.o                       148     0         0      
       dl_adc12.o                     116     0         0      
       dl_i2c.o                       92      0         0      
       dl_common.o                    20      0         0      
    +--+------------------------------+-------+---------+---------+
       Total:                         2448    0         0      
                                                               
    F:\ti\ccs1271\ccs\tools\compiler\ti-cgt-armllvm_3.2.2.LTS\lib\armv6m-ti-none-eabi/c/libc.a
       s_atanf.c.obj                  466     32        0      
       e_atan2f.c.obj                 304     0         0      
       e_sqrtf.c.obj                  168     0         0      
       copy_decompress_lzss.c.obj     120     0         0      
       autoinit.c.obj                 84      0         0      
       boot_cortex_m.c.obj            56      0         0      
       copy_zero_init.c.obj           22      0         0      
       copy_decompress_none.c.obj     18      0         0      
       memcpy16.S.obj                 18      0         0      
       aeabi_portable.c.obj           8       0         4      
       exit.c.obj                     4       0         0      
       pre_init.c.obj                 4       0         0      
    +--+------------------------------+-------+---------+---------+
       Total:                         1272    32        4      
                                                               
    F:\ti\ccs1271\ccs\tools\compiler\ti-cgt-armllvm_3.2.2.LTS\lib\clang/15.0.7/lib/armv6m-ti-none-eabi/libclang_rt.builtins.a
       adddf3.S.obj                   402     0         0      
       divdf3.S.obj                   268     0         0      
       addsf3.S.obj                   232     0         0      
       muldf3.S.obj                   228     0         0      
       divsf3.S.obj                   146     0         0      
       mulsf3.S.obj                   140     0         0      
       comparesf2.S.obj               118     0         0      
       truncdfsf2.S.obj               116     0         0      
       aeabi_fcmp.S.obj               98      0         0      
       fixdfsi.S.obj                  74      0         0      
       aeabi_uidivmod.S.obj           64      0         0      
       extendsfdf2.S.obj              64      0         0      
       floatsisf.S.obj                60      0         0      
       muldsi3.S.obj                  58      0         0      
       fixsfsi.S.obj                  56      0         0      
       floatsidf.S.obj                44      0         0      
       floatunsisf.S.obj              40      0         0      
       aeabi_memcpy.S.obj             8       0         0      
       aeabi_div0.c.obj               2       0         0      
    +--+------------------------------+-------+---------+---------+
       Total:                         2218    0         0      
                                                               
       Stack:                         0       0         512    
       Linker Generated:              0       625       0      
    +--+------------------------------+-------+---------+---------+
       Grand Total:                   20502   11259     3560   


LINKER GENERATED COPY TABLES

__TI_cinit_table @ 00007c34 records: 2, size/record: 8, table size: 16
	.data: load addr=000079d0, load size=0000024d bytes, run addr=20200000, run size=000009ba bytes, compression=lzss
	.bss: load addr=00007c2c, load size=00000008 bytes, run addr=202009bc, run size=0000022e bytes, compression=zero_init


LINKER GENERATED HANDLER TABLE

__TI_handler_table @ 00007c20 records: 3, size/record: 4, table size: 12
	index: 0, handler: __TI_decompress_lzss
	index: 1, handler: __TI_decompress_none
	index: 2, handler: __TI_zero_init


FAR CALL TRAMPOLINES

callee name               trampoline name
   callee addr  tramp addr   call addr  call info
--------------  -----------  ---------  ----------------
__aeabi_fdiv              $Tramp$TT$L$PI$$__aeabi_fdiv
   00002d49     000050b0     000050ac   libc.a : s_atanf.c.obj (.text.OUTLINED_FUNCTION_0)
__aeabi_fadd              $Tramp$TT$L$PI$$__aeabi_fadd
   0000238f     000050c8     000050c6   libc.a : s_atanf.c.obj (.text.OUTLINED_FUNCTION_1)
_c_int00_noargs           $Tramp$TT$L$PI$$_c_int00_noargs
   00004501     000050dc     000050d8   startup_mspm0g350x_ticlang.o (.text.Reset_Handler)

[3 trampolines]
[3 trampoline calls]


GLOBAL SYMBOLS: SORTED ALPHABETICALLY BY Name 

address   name                                                             
-------   ----                                                             
00004149  ADC0_IRQHandler                                                  
000033cd  ADC1_IRQHandler                                                  
20200960  ADC_VIN_cnt                                                      
20200964  ADC_cnt                                                          
000050c1  AES_IRQHandler                                                   
000050f0  C$$EXIT                                                          
000050c1  CANFD0_IRQHandler                                                
20200968  CCD_cnt                                                          
000050c1  DAC0_IRQHandler                                                  
00003559  DL_ADC12_setClockConfig                                          
00004e0f  DL_Common_delayCycles                                            
000039ad  DL_DMA_initChannel                                               
00003eb5  DL_I2C_setClockConfig                                            
000037b5  DL_SPI_init                                                      
000045e5  DL_SPI_setClockConfig                                            
00001efd  DL_SYSCTL_configSYSPLL                                           
000030f5  DL_SYSCTL_setHFCLKSourceHFXTParams                               
000035a5  DL_SYSCTL_switchMCLKfromSYSOSCtoHSCLK                            
00001fe9  DL_TimerA_initPWMMode                                            
00001bed  DL_Timer_initPWMMode                                             
00003ee9  DL_Timer_setCaptCompUpdateMethod                                 
00003f1d  DL_Timer_setCaptureCompareAction                                 
00003c35  DL_Timer_setCaptureCompareCtl                                    
00003f51  DL_Timer_setCaptureCompareInput                                  
00003a39  DL_Timer_setCaptureCompareOutCtl                                 
000041a1  DL_Timer_setCaptureCompareValue                                  
00003f85  DL_Timer_setClockConfig                                          
000035f1  DL_UART_init                                                     
00004609  DL_UART_setClockConfig                                           
2020096c  DMA_EN_cnt                                                       
000050c1  DMA_IRQHandler                                                   
000050c1  Default_Handler                                                  
000050c1  GROUP0_IRQHandler                                                
000050c1  GROUP1_IRQHandler                                                
000050c1  HardFault_Handler                                                
000050c1  I2C0_IRQHandler                                                  
000050c1  I2C1_IRQHandler                                                  
000050c1  NMI_Handler                                                      
000050c1  PendSV_Handler                                                   
000050c1  RTC_IRQHandler                                                   
000050d9  Reset_Handler                                                    
000079c8  SHT$$INIT_ARRAY$$Base                                            
000079cc  SHT$$INIT_ARRAY$$Limit                                           
000050c1  SPI0_IRQHandler                                                  
000050c1  SPI1_IRQHandler                                                  
0000321d  SPI_transmitData                                                 
000050c1  SVC_Handler                                                      
00002a09  SYSCFG_DL_ADC_CCD_init                                           
00003025  SYSCFG_DL_ADC_VIN_init                                           
00004bb1  SYSCFG_DL_DMA_CH0_init                                           
00005091  SYSCFG_DL_DMA_init                                               
00001615  SYSCFG_DL_GPIO_init                                              
000041cd  SYSCFG_DL_I2C_0_init                                             
000031bd  SYSCFG_DL_PWM_BUZZER_init                                        
00002b31  SYSCFG_DL_PWM_MOTOR0_init                                        
00002c41  SYSCFG_DL_PWM_MOTOR1_init                                        
00003a79  SYSCFG_DL_SPI_ENCODER_init                                       
00003ab9  SYSCFG_DL_SPI_IMU_init                                           
000037fd  SYSCFG_DL_SYSCTL_init                                            
00005051  SYSCFG_DL_SYSTICK_init                                           
00002bb9  SYSCFG_DL_TIM_CCD_init                                           
00003325  SYSCFG_DL_UART_0_init                                            
0000308d  SYSCFG_DL_init                                                   
000021bd  SYSCFG_DL_initPower                                              
0000346d  SysTick_Handler                                                  
000050c1  TIMA0_IRQHandler                                                 
000050c1  TIMA1_IRQHandler                                                 
000050c1  TIMG0_IRQHandler                                                 
00004935  TIMG12_IRQHandler                                                
000050c1  TIMG6_IRQHandler                                                 
000050c1  TIMG7_IRQHandler                                                 
000050c1  TIMG8_IRQHandler                                                 
00004ffd  TI_memcpy_small                                                  
0000275d  UART0_IRQHandler                                                 
000050c1  UART1_IRQHandler                                                 
000050c1  UART2_IRQHandler                                                 
000050c1  UART3_IRQHandler                                                 
00002521  _Z10test_powerv                                                  
000036d3  _Z13UART_TransmitP9UART_RegsPht                                  
00002f45  _Z14signal_Handlerv                                              
00004eb1  _Z5atan2B6v15007ff                                               
00000801  _ZN10Controller7HandlerEv                                        
00003845  _ZN10ControllerC1EP7Chassis                                      
00003845  _ZN10ControllerC2EP7Chassis                                      
00002965  _ZN14PID_Controller7HandlerEv                                    
00003c71  _ZN14PID_ControllerC1EP7Chassis                                  
00003c71  _ZN14PID_ControllerC2EP7Chassis                                  
00004651  _ZN3CCD4initEv                                                   
0000388d  _ZN3CCD7HandlerEv                                                
000025e1  _ZN3CCD7SI_sendEv                                                
00004699  _ZN3CCDC2Ev                                                      
00001ad9  _ZN3IMU4initEv                                                   
000047fd  _ZN3IMU7HandlerEv                                                
00000d5d  _ZN3IMU8get_dataEv                                               
000046bb  _ZN3IMUC2Ev                                                      
00004f3d  _ZN5MotorC2Ev                                                    
00004fc7  _ZN6Buzzer4stopEv                                                
00004fd9  _ZN6Buzzer5startEv                                               
00005061  _ZN6BuzzerC1EP12GPTIMER_Regs                                     
00005061  _ZN6BuzzerC2EP12GPTIMER_Regs                                     
00000f55  _ZN6Remote12process_dataEv                                       
00004f51  _ZN6Remote7HandlerEv                                             
0000459b  _ZN6RemoteC1EP9UART_Regs                                         
0000459b  _ZN6RemoteC2EP9UART_Regs                                         
000000c1  _ZN7Chassis7HandlerEv                                            
00000ac5  _ZN7Chassis7processEv                                            
00003279  _ZN7ChassisC1EP9N20_MotorS1_P3IMUP3CCDf                          
00003279  _ZN7ChassisC2EP9N20_MotorS1_P3IMUP3CCDf                          
000046dd  _ZN7Encoder7HandlerEv                                            
00004987  _ZN7EncoderC1EPl                                                 
00004987  _ZN7EncoderC2EPl                                                 
00001e09  _ZN7LS7366R4initEhh                                              
000038d5  _ZN7LS7366R5resetEv                                              
0000280d  _ZN7LS7366R7HandlerEv                                            
00004461  _ZN7LS7366RC1EP8SPI_RegsP9GPIO_Regsjj                            
00004461  _ZN7LS7366RC2EP8SPI_RegsP9GPIO_Regsjj                            
00004675  _ZN9N20_Motor12pwm_set_dutyE17DL_TIMER_CC_INDEXt                 
000012e9  _ZN9N20_Motor16output_intensityEv                                
000018a1  _ZN9N20_Motor17measure_parameterEv                               
00004feb  _ZN9N20_Motor4initEv                                             
00004ce9  _ZN9N20_Motor7HandlerEv                                          
0000371d  _ZN9N20_MotorC1EP12GPTIMER_Regs17DL_TIMER_CC_INDEXS2_P7Encoderfff
0000371d  _ZN9N20_MotorC2EP12GPTIMER_Regs17DL_TIMER_CC_INDEXS2_P7Encoderfff
20208000  __STACK_END                                                      
00000200  __STACK_SIZE                                                     
00000000  __TI_ATRegion0_region_sz                                         
00000000  __TI_ATRegion0_src_addr                                          
00000000  __TI_ATRegion0_trg_addr                                          
00000000  __TI_ATRegion1_region_sz                                         
00000000  __TI_ATRegion1_src_addr                                          
00000000  __TI_ATRegion1_trg_addr                                          
00000000  __TI_ATRegion2_region_sz                                         
00000000  __TI_ATRegion2_src_addr                                          
00000000  __TI_ATRegion2_trg_addr                                          
00007c34  __TI_CINIT_Base                                                  
00007c44  __TI_CINIT_Limit                                                 
00007c44  __TI_CINIT_Warm                                                  
00007c20  __TI_Handler_Table_Base                                          
00007c2c  __TI_Handler_Table_Limit                                         
00003379  __TI_auto_init_nobinit                                           
00002e4d  __TI_decompress_lzss                                             
0000500f  __TI_decompress_none                                             
ffffffff  __TI_pprof_out_hndl                                              
ffffffff  __TI_prof_data_size                                              
ffffffff  __TI_prof_data_start                                             
00000000  __TI_static_base__                                               
00004df9  __TI_zero_init_nomemset                                          
0000148b  __adddf3                                                         
0000238f  __addsf3                                                         
00002ed1  __aeabi_d2f                                                      
00003769  __aeabi_d2iz                                                     
0000148b  __aeabi_dadd                                                     
00001cfd  __aeabi_ddiv                                                     
000022a1  __aeabi_dmul                                                     
00001481  __aeabi_dsub                                                     
2020097c  __aeabi_errno                                                    
00005099  __aeabi_errno_addr                                               
00003bb9  __aeabi_f2d                                                      
00003e7d  __aeabi_f2iz                                                     
0000238f  __aeabi_fadd                                                     
00003159  __aeabi_fcmpeq                                                   
00003195  __aeabi_fcmpge                                                   
000031a9  __aeabi_fcmpgt                                                   
00003181  __aeabi_fcmple                                                   
0000316d  __aeabi_fcmplt                                                   
00002d49  __aeabi_fdiv                                                     
00002aa5  __aeabi_fmul                                                     
00002385  __aeabi_fsub                                                     
0000427d  __aeabi_i2d                                                      
00003cad  __aeabi_i2f                                                      
00001613  __aeabi_idiv0                                                    
000050a1  __aeabi_memcpy                                                   
000050a1  __aeabi_memcpy4                                                  
000050a1  __aeabi_memcpy8                                                  
000044b1  __aeabi_ui2f                                                     
00003b79  __aeabi_uidiv                                                    
00003b79  __aeabi_uidivmod                                                 
ffffffff  __binit__                                                        
00003d25  __cmpsf2                                                         
00001cfd  __divdf3                                                         
00002d49  __divsf3                                                         
00003d25  __eqsf2                                                          
00003bb9  __extendsfdf2                                                    
00003769  __fixdfsi                                                        
00003e7d  __fixsfsi                                                        
0000427d  __floatsidf                                                      
00003cad  __floatsisf                                                      
000044b1  __floatunsisf                                                    
00003ce9  __gesf2                                                          
00003ce9  __gtsf2                                                          
00003d25  __lesf2                                                          
00003d25  __ltsf2                                                          
UNDEFED   __mpu_init                                                       
000022a1  __muldf3                                                         
00003d61  __muldsi3                                                        
00002aa5  __mulsf3                                                         
00003d25  __nesf2                                                          
20207e00  __stack                                                          
20200000  __start___llvm_prf_bits                                          
20200000  __start___llvm_prf_cnts                                          
20200000  __stop___llvm_prf_bits                                           
20200000  __stop___llvm_prf_cnts                                           
00001481  __subdf3                                                         
00002385  __subsf3                                                         
00002ed1  __truncdfsf2                                                     
00004501  _c_int00_noargs                                                  
UNDEFED   _system_post_cinit                                               
000050ed  _system_pre_init                                                 
000050f1  abort                                                            
00000511  arm_sin_cos_f32                                                  
00001771  atan2f                                                           
00001121  atanf                                                            
ffffffff  binit                                                            
20200980  buzzer                                                           
202004d8  ccd                                                              
202002d8  ccd_norm                                                         
20200000  chassis                                                          
202007c8  controller                                                       
20200be8  crc                                                              
202009a0  crc1                                                             
20200984  crc_err                                                          
000044d9  delay_ms                                                         
202009a2  end_flag                                                         
202009b7  gCheckADC                                                        
202009bc  gPWM_MOTOR0Backup                                                
20200a78  gPWM_MOTOR1Backup                                                
20200b98  gSPI_ENCODERBackup                                               
20200bc0  gSPI_IMUBackup                                                   
20200818  imu                                                              
202009a4  imu660ra_acc_x                                                   
202009a6  imu660ra_acc_y                                                   
202009a8  imu660ra_acc_z                                                   
0000391d  imu660ra_get_acc                                                 
00003965  imu660ra_get_gyro                                                
202009aa  imu660ra_gyro_x                                                  
202009ac  imu660ra_gyro_y                                                  
202009ae  imu660ra_gyro_z                                                  
000020d5  imu660ra_init                                                    
20200988  imu660ra_state                                                   
20200958  imu660ra_transition_factor                                       
202009b8  init_flag                                                        
00000000  interruptVectors                                                 
20200910  left_encoder                                                     
20200868  left_motor                                                       
0000245d  loop                                                             
202008ec  ls7366r                                                          
00004d31  main                                                             
20200894  pid_controller                                                   
202009b0  power_vin                                                        
2020066c  remote                                                           
2020098c  remote_cnt                                                       
20200924  right_encoder                                                    
202008c0  right_motor                                                      
000026a1  setup                                                            
202009b9  signal_en_flag                                                   
00007100  sinTable_f32                                                     
00002dcb  spi_read_8bit_registers                                          
00004055  spi_write_8bit_register                                          
00004119  spi_write_8bit_registers                                         
000028bd  sqrtf                                                            
202009b2  start_flag                                                       
000019c1  task_handler                                                     
20200748  temp_rx                                                          
20200990  uart1_cnt                                                        
20200b34  uart1_rx_buf                                                     
202009b4  uart1_rx_len                                                     
20200994  uart1_state                                                      
20200998  utick                                                            
2020099c  vin                                                              


GLOBAL SYMBOLS: SORTED BY Symbol Address 

address   name                                                             
-------   ----                                                             
00000000  __TI_ATRegion0_region_sz                                         
00000000  __TI_ATRegion0_src_addr                                          
00000000  __TI_ATRegion0_trg_addr                                          
00000000  __TI_ATRegion1_region_sz                                         
00000000  __TI_ATRegion1_src_addr                                          
00000000  __TI_ATRegion1_trg_addr                                          
00000000  __TI_ATRegion2_region_sz                                         
00000000  __TI_ATRegion2_src_addr                                          
00000000  __TI_ATRegion2_trg_addr                                          
00000000  __TI_static_base__                                               
00000000  interruptVectors                                                 
000000c1  _ZN7Chassis7HandlerEv                                            
00000200  __STACK_SIZE                                                     
00000511  arm_sin_cos_f32                                                  
00000801  _ZN10Controller7HandlerEv                                        
00000ac5  _ZN7Chassis7processEv                                            
00000d5d  _ZN3IMU8get_dataEv                                               
00000f55  _ZN6Remote12process_dataEv                                       
00001121  atanf                                                            
000012e9  _ZN9N20_Motor16output_intensityEv                                
00001481  __aeabi_dsub                                                     
00001481  __subdf3                                                         
0000148b  __adddf3                                                         
0000148b  __aeabi_dadd                                                     
00001613  __aeabi_idiv0                                                    
00001615  SYSCFG_DL_GPIO_init                                              
00001771  atan2f                                                           
000018a1  _ZN9N20_Motor17measure_parameterEv                               
000019c1  task_handler                                                     
00001ad9  _ZN3IMU4initEv                                                   
00001bed  DL_Timer_initPWMMode                                             
00001cfd  __aeabi_ddiv                                                     
00001cfd  __divdf3                                                         
00001e09  _ZN7LS7366R4initEhh                                              
00001efd  DL_SYSCTL_configSYSPLL                                           
00001fe9  DL_TimerA_initPWMMode                                            
000020d5  imu660ra_init                                                    
000021bd  SYSCFG_DL_initPower                                              
000022a1  __aeabi_dmul                                                     
000022a1  __muldf3                                                         
00002385  __aeabi_fsub                                                     
00002385  __subsf3                                                         
0000238f  __addsf3                                                         
0000238f  __aeabi_fadd                                                     
0000245d  loop                                                             
00002521  _Z10test_powerv                                                  
000025e1  _ZN3CCD7SI_sendEv                                                
000026a1  setup                                                            
0000275d  UART0_IRQHandler                                                 
0000280d  _ZN7LS7366R7HandlerEv                                            
000028bd  sqrtf                                                            
00002965  _ZN14PID_Controller7HandlerEv                                    
00002a09  SYSCFG_DL_ADC_CCD_init                                           
00002aa5  __aeabi_fmul                                                     
00002aa5  __mulsf3                                                         
00002b31  SYSCFG_DL_PWM_MOTOR0_init                                        
00002bb9  SYSCFG_DL_TIM_CCD_init                                           
00002c41  SYSCFG_DL_PWM_MOTOR1_init                                        
00002d49  __aeabi_fdiv                                                     
00002d49  __divsf3                                                         
00002dcb  spi_read_8bit_registers                                          
00002e4d  __TI_decompress_lzss                                             
00002ed1  __aeabi_d2f                                                      
00002ed1  __truncdfsf2                                                     
00002f45  _Z14signal_Handlerv                                              
00003025  SYSCFG_DL_ADC_VIN_init                                           
0000308d  SYSCFG_DL_init                                                   
000030f5  DL_SYSCTL_setHFCLKSourceHFXTParams                               
00003159  __aeabi_fcmpeq                                                   
0000316d  __aeabi_fcmplt                                                   
00003181  __aeabi_fcmple                                                   
00003195  __aeabi_fcmpge                                                   
000031a9  __aeabi_fcmpgt                                                   
000031bd  SYSCFG_DL_PWM_BUZZER_init                                        
0000321d  SPI_transmitData                                                 
00003279  _ZN7ChassisC1EP9N20_MotorS1_P3IMUP3CCDf                          
00003279  _ZN7ChassisC2EP9N20_MotorS1_P3IMUP3CCDf                          
00003325  SYSCFG_DL_UART_0_init                                            
00003379  __TI_auto_init_nobinit                                           
000033cd  ADC1_IRQHandler                                                  
0000346d  SysTick_Handler                                                  
00003559  DL_ADC12_setClockConfig                                          
000035a5  DL_SYSCTL_switchMCLKfromSYSOSCtoHSCLK                            
000035f1  DL_UART_init                                                     
000036d3  _Z13UART_TransmitP9UART_RegsPht                                  
0000371d  _ZN9N20_MotorC1EP12GPTIMER_Regs17DL_TIMER_CC_INDEXS2_P7Encoderfff
0000371d  _ZN9N20_MotorC2EP12GPTIMER_Regs17DL_TIMER_CC_INDEXS2_P7Encoderfff
00003769  __aeabi_d2iz                                                     
00003769  __fixdfsi                                                        
000037b5  DL_SPI_init                                                      
000037fd  SYSCFG_DL_SYSCTL_init                                            
00003845  _ZN10ControllerC1EP7Chassis                                      
00003845  _ZN10ControllerC2EP7Chassis                                      
0000388d  _ZN3CCD7HandlerEv                                                
000038d5  _ZN7LS7366R5resetEv                                              
0000391d  imu660ra_get_acc                                                 
00003965  imu660ra_get_gyro                                                
000039ad  DL_DMA_initChannel                                               
00003a39  DL_Timer_setCaptureCompareOutCtl                                 
00003a79  SYSCFG_DL_SPI_ENCODER_init                                       
00003ab9  SYSCFG_DL_SPI_IMU_init                                           
00003b79  __aeabi_uidiv                                                    
00003b79  __aeabi_uidivmod                                                 
00003bb9  __aeabi_f2d                                                      
00003bb9  __extendsfdf2                                                    
00003c35  DL_Timer_setCaptureCompareCtl                                    
00003c71  _ZN14PID_ControllerC1EP7Chassis                                  
00003c71  _ZN14PID_ControllerC2EP7Chassis                                  
00003cad  __aeabi_i2f                                                      
00003cad  __floatsisf                                                      
00003ce9  __gesf2                                                          
00003ce9  __gtsf2                                                          
00003d25  __cmpsf2                                                         
00003d25  __eqsf2                                                          
00003d25  __lesf2                                                          
00003d25  __ltsf2                                                          
00003d25  __nesf2                                                          
00003d61  __muldsi3                                                        
00003e7d  __aeabi_f2iz                                                     
00003e7d  __fixsfsi                                                        
00003eb5  DL_I2C_setClockConfig                                            
00003ee9  DL_Timer_setCaptCompUpdateMethod                                 
00003f1d  DL_Timer_setCaptureCompareAction                                 
00003f51  DL_Timer_setCaptureCompareInput                                  
00003f85  DL_Timer_setClockConfig                                          
00004055  spi_write_8bit_register                                          
00004119  spi_write_8bit_registers                                         
00004149  ADC0_IRQHandler                                                  
000041a1  DL_Timer_setCaptureCompareValue                                  
000041cd  SYSCFG_DL_I2C_0_init                                             
0000427d  __aeabi_i2d                                                      
0000427d  __floatsidf                                                      
00004461  _ZN7LS7366RC1EP8SPI_RegsP9GPIO_Regsjj                            
00004461  _ZN7LS7366RC2EP8SPI_RegsP9GPIO_Regsjj                            
000044b1  __aeabi_ui2f                                                     
000044b1  __floatunsisf                                                    
000044d9  delay_ms                                                         
00004501  _c_int00_noargs                                                  
0000459b  _ZN6RemoteC1EP9UART_Regs                                         
0000459b  _ZN6RemoteC2EP9UART_Regs                                         
000045e5  DL_SPI_setClockConfig                                            
00004609  DL_UART_setClockConfig                                           
00004651  _ZN3CCD4initEv                                                   
00004675  _ZN9N20_Motor12pwm_set_dutyE17DL_TIMER_CC_INDEXt                 
00004699  _ZN3CCDC2Ev                                                      
000046bb  _ZN3IMUC2Ev                                                      
000046dd  _ZN7Encoder7HandlerEv                                            
000047fd  _ZN3IMU7HandlerEv                                                
00004935  TIMG12_IRQHandler                                                
00004987  _ZN7EncoderC1EPl                                                 
00004987  _ZN7EncoderC2EPl                                                 
00004bb1  SYSCFG_DL_DMA_CH0_init                                           
00004ce9  _ZN9N20_Motor7HandlerEv                                          
00004d31  main                                                             
00004df9  __TI_zero_init_nomemset                                          
00004e0f  DL_Common_delayCycles                                            
00004eb1  _Z5atan2B6v15007ff                                               
00004f3d  _ZN5MotorC2Ev                                                    
00004f51  _ZN6Remote7HandlerEv                                             
00004fc7  _ZN6Buzzer4stopEv                                                
00004fd9  _ZN6Buzzer5startEv                                               
00004feb  _ZN9N20_Motor4initEv                                             
00004ffd  TI_memcpy_small                                                  
0000500f  __TI_decompress_none                                             
00005051  SYSCFG_DL_SYSTICK_init                                           
00005061  _ZN6BuzzerC1EP12GPTIMER_Regs                                     
00005061  _ZN6BuzzerC2EP12GPTIMER_Regs                                     
00005091  SYSCFG_DL_DMA_init                                               
00005099  __aeabi_errno_addr                                               
000050a1  __aeabi_memcpy                                                   
000050a1  __aeabi_memcpy4                                                  
000050a1  __aeabi_memcpy8                                                  
000050c1  AES_IRQHandler                                                   
000050c1  CANFD0_IRQHandler                                                
000050c1  DAC0_IRQHandler                                                  
000050c1  DMA_IRQHandler                                                   
000050c1  Default_Handler                                                  
000050c1  GROUP0_IRQHandler                                                
000050c1  GROUP1_IRQHandler                                                
000050c1  HardFault_Handler                                                
000050c1  I2C0_IRQHandler                                                  
000050c1  I2C1_IRQHandler                                                  
000050c1  NMI_Handler                                                      
000050c1  PendSV_Handler                                                   
000050c1  RTC_IRQHandler                                                   
000050c1  SPI0_IRQHandler                                                  
000050c1  SPI1_IRQHandler                                                  
000050c1  SVC_Handler                                                      
000050c1  TIMA0_IRQHandler                                                 
000050c1  TIMA1_IRQHandler                                                 
000050c1  TIMG0_IRQHandler                                                 
000050c1  TIMG6_IRQHandler                                                 
000050c1  TIMG7_IRQHandler                                                 
000050c1  TIMG8_IRQHandler                                                 
000050c1  UART1_IRQHandler                                                 
000050c1  UART2_IRQHandler                                                 
000050c1  UART3_IRQHandler                                                 
000050d9  Reset_Handler                                                    
000050ed  _system_pre_init                                                 
000050f0  C$$EXIT                                                          
000050f1  abort                                                            
00007100  sinTable_f32                                                     
000079c8  SHT$$INIT_ARRAY$$Base                                            
000079cc  SHT$$INIT_ARRAY$$Limit                                           
00007c20  __TI_Handler_Table_Base                                          
00007c2c  __TI_Handler_Table_Limit                                         
00007c34  __TI_CINIT_Base                                                  
00007c44  __TI_CINIT_Limit                                                 
00007c44  __TI_CINIT_Warm                                                  
20200000  __start___llvm_prf_bits                                          
20200000  __start___llvm_prf_cnts                                          
20200000  __stop___llvm_prf_bits                                           
20200000  __stop___llvm_prf_cnts                                           
20200000  chassis                                                          
202002d8  ccd_norm                                                         
202004d8  ccd                                                              
2020066c  remote                                                           
20200748  temp_rx                                                          
202007c8  controller                                                       
20200818  imu                                                              
20200868  left_motor                                                       
20200894  pid_controller                                                   
202008c0  right_motor                                                      
202008ec  ls7366r                                                          
20200910  left_encoder                                                     
20200924  right_encoder                                                    
20200958  imu660ra_transition_factor                                       
20200960  ADC_VIN_cnt                                                      
20200964  ADC_cnt                                                          
20200968  CCD_cnt                                                          
2020096c  DMA_EN_cnt                                                       
2020097c  __aeabi_errno                                                    
20200980  buzzer                                                           
20200984  crc_err                                                          
20200988  imu660ra_state                                                   
2020098c  remote_cnt                                                       
20200990  uart1_cnt                                                        
20200994  uart1_state                                                      
20200998  utick                                                            
2020099c  vin                                                              
202009a0  crc1                                                             
202009a2  end_flag                                                         
202009a4  imu660ra_acc_x                                                   
202009a6  imu660ra_acc_y                                                   
202009a8  imu660ra_acc_z                                                   
202009aa  imu660ra_gyro_x                                                  
202009ac  imu660ra_gyro_y                                                  
202009ae  imu660ra_gyro_z                                                  
202009b0  power_vin                                                        
202009b2  start_flag                                                       
202009b4  uart1_rx_len                                                     
202009b7  gCheckADC                                                        
202009b8  init_flag                                                        
202009b9  signal_en_flag                                                   
202009bc  gPWM_MOTOR0Backup                                                
20200a78  gPWM_MOTOR1Backup                                                
20200b34  uart1_rx_buf                                                     
20200b98  gSPI_ENCODERBackup                                               
20200bc0  gSPI_IMUBackup                                                   
20200be8  crc                                                              
20207e00  __stack                                                          
20208000  __STACK_END                                                      
ffffffff  __TI_pprof_out_hndl                                              
ffffffff  __TI_prof_data_size                                              
ffffffff  __TI_prof_data_start                                             
ffffffff  __binit__                                                        
ffffffff  binit                                                            
UNDEFED   __mpu_init                                                       
UNDEFED   _system_post_cinit                                               

[269 symbols]
