******************************************************************************
            TI ARM Clang Linker PC v3.2.2                      
******************************************************************************
>> Linked Wed Jul 31 10:41:08 2024

OUTPUT FILE NAME:   <control.out>
ENTRY POINT SYMBOL: "_c_int00_noargs"  address: 0000477d


MEMORY CONFIGURATION

         name            origin    length      used     unused   attr    fill
----------------------  --------  ---------  --------  --------  ----  --------
  FLASH                 00000000   00020000  00005e48  0001a1b8  R  X
  SRAM                  20200000   00008000  00000dc9  00007237  RW X
  BCR_CONFIG            41c00000   00000080  00000000  00000080  R   
  BSL_CONFIG            41c00100   00000080  00000000  00000080  R   


SEGMENT ALLOCATION MAP

run origin  load origin   length   init length attrs members
----------  ----------- ---------- ----------- ----- -------
00000000    00000000    00005e48   00005e48    r-x
  00000000    00000000    000000c0   000000c0    r-- .intvecs
  000000c0    000000c0    00005250   00005250    r-x .text
  00005310    00005310    000008c8   000008c8    r-- .rodata
  00005bd8    00005bd8    00000008   00000008    r-- .init_array
  00005be0    00005be0    00000268   00000268    r-- .cinit
20200000    20200000    00000bca   00000000    rw-
  20200000    20200000    00000993   00000000    rw- .data
  20200994    20200994    00000236   00000000    rw- .bss
20207e00    20207e00    00000200   00000000    rw-
  20207e00    20207e00    00000200   00000000    rw- .stack


SECTION ALLOCATION MAP

 output                                  attributes/
section   page    origin      length       input sections
--------  ----  ----------  ----------   ----------------
.intvecs   0    00000000    000000c0     
                  00000000    000000c0     startup_mspm0g350x_ticlang.o (.intvecs)

.binit     0    00000000    00000000     

.text      0    000000c0    00005250     
                  000000c0    00000440     Chassis.o (.text._ZN7Chassis7HandlerEv)
                  00000500    000002f0     arm_cortexM0l_math.a : arm_sin_cos_f32.o (.text.arm_sin_cos_f32)
                  000007f0    000002c4     Controller.o (.text._ZN10Controller7HandlerEv)
                  00000ab4    00000298     Chassis.o (.text._ZN7Chassis7processEv)
                  00000d4c    00000248     IMU.o (.text._ZN3IMU8get_dataEv)
                  00000f94    000001cc     Remote.o (.text._ZN6Remote12process_dataEv)
                  00001160    000001c8     libc.a : s_atanf.c.obj (.text.atanf)
                  00001328    000001ac     N20_Motor.o (.text._ZN9N20_Motor16output_intensityEv)
                  000014d4    00000192     libclang_rt.builtins.a : adddf3.S.obj (.text.adddf3_subdf3)
                  00001666    00000002                            : aeabi_div0.c.obj (.text.__aeabi_idiv0)
                  00001668    00000180     imu963ra.o (.text.imu963ra_init)
                  000017e8    00000174     task.o (.text.task_handler)
                  0000195c    00000130     libc.a : e_atan2f.c.obj (.text.atan2f)
                  00001a8c    0000012c     ti_msp_dl_config.o (.text.SYSCFG_DL_GPIO_init)
                  00001bb8    00000120     N20_Motor.o (.text._ZN9N20_Motor17measure_parameterEv)
                  00001cd8    00000114     IMU.o (.text._ZN3IMU4initEv)
                  00001dec    00000110     driverlib.a : dl_timer.o (.text.DL_Timer_initPWMMode)
                  00001efc    0000010c     libclang_rt.builtins.a : divdf3.S.obj (.text.__divdf3)
                  00002008    000000f4     LS7366R.o (.text._ZN7LS7366R4initEhh)
                  000020fc    000000ec     driverlib.a : dl_sysctl_mspm0g1x0x_g3x0x.o (.text.DL_SYSCTL_configSYSPLL)
                  000021e8    000000ec                 : dl_timer.o (.text.DL_TimerA_initPWMMode)
                  000022d4    000000e4     libclang_rt.builtins.a : muldf3.S.obj (.text.__muldf3)
                  000023b8    000000d8                            : addsf3.S.obj (.text)
                  00002490    000000d4     ti_msp_dl_config.o (.text.SYSCFG_DL_initPower)
                  00002564    000000d4     task.o (.text.setup)
                  00002638    000000c0     task.o (.text._Z10test_powerv)
                  000026f8    000000c0     CCD.o (.text._ZN3CCD7SI_sendEv)
                  000027b8    000000c0     task.o (.text.loop)
                  00002878    000000b0     task.o (.text.UART0_IRQHandler)
                  00002928    000000ae     LS7366R.o (.text._ZN7LS7366R7HandlerEv)
                  000029d6    00000002     --HOLE-- [fill = 0]
                  000029d8    000000a8     libc.a : e_sqrtf.c.obj (.text.sqrtf)
                  00002a80    000000a2     PID_Controller.o (.text._ZN14PID_Controller7HandlerEv)
                  00002b22    00000002     --HOLE-- [fill = 0]
                  00002b24    0000009c     ti_msp_dl_config.o (.text.SYSCFG_DL_ADC_CCD_init)
                  00002bc0    0000008e     imu963ra.o (.text._ZL27imu963ra_write_mag_registerhhh)
                  00002c4e    00000002     --HOLE-- [fill = 0]
                  00002c50    0000008c     libclang_rt.builtins.a : mulsf3.S.obj (.text.__mulsf3)
                  00002cdc    00000088     ti_msp_dl_config.o (.text.SYSCFG_DL_PWM_MOTOR0_init)
                  00002d64    00000088     ti_msp_dl_config.o (.text.SYSCFG_DL_TIM_CCD_init)
                  00002dec    00000084     ti_msp_dl_config.o (.text.SYSCFG_DL_PWM_MOTOR1_init)
                  00002e70    00000084     ti_msp_dl_config.o (.text.__NVIC_SetPriority)
                  00002ef4    00000082     libclang_rt.builtins.a : divsf3.S.obj (.text.__divsf3)
                  00002f76    00000082     hal.o (.text.spi_read_8bit_registers)
                  00002ff8    00000078     libc.a : copy_decompress_lzss.c.obj (.text:decompress:lzss)
                  00003070    00000076     imu963ra.o (.text._ZL26imu963ra_read_mag_registerhh)
                  000030e6    00000008     ti_msp_dl_config.o (.text.SYSCFG_DL_DMA_init)
                  000030ee    00000002     --HOLE-- [fill = 0]
                  000030f0    00000074     libclang_rt.builtins.a : truncdfsf2.S.obj (.text.__truncdfsf2)
                  00003164    00000070     task.o (.text._Z14signal_Handlerv)
                  000031d4    00000070     imu963ra.o (.text.imu963ra_get_mag)
                  00003244    00000068     ti_msp_dl_config.o (.text.SYSCFG_DL_ADC_VIN_init)
                  000032ac    00000068     hal.o (.text.spi_read_8bit_register)
                  00003314    00000064     driverlib.a : dl_sysctl_mspm0g1x0x_g3x0x.o (.text.DL_SYSCTL_setHFCLKSourceHFXTParams)
                  00003378    00000064     ti_msp_dl_config.o (.text.SYSCFG_DL_init)
                  000033dc    00000062     libclang_rt.builtins.a : aeabi_fcmp.S.obj (.text.__aeabi_fcmp)
                  0000343e    00000002     --HOLE-- [fill = 0]
                  00003440    00000060     ti_msp_dl_config.o (.text.SYSCFG_DL_PWM_BUZZER_init)
                  000034a0    0000005a     hal.o (.text.SPI_transmitData)
                  000034fa    00000002     --HOLE-- [fill = 0]
                  000034fc    00000058     Chassis.o (.text._ZN7ChassisC2EP9N20_MotorS1_P3IMUP3CCDf)
                  00003554    00000054     driverlib.a : dl_dma.o (.text.DL_DMA_configTransfer)
                  000035a8    00000054     ti_msp_dl_config.o (.text.SYSCFG_DL_UART_0_init)
                  000035fc    00000054     libc.a : autoinit.c.obj (.text:__TI_auto_init_nobinit)
                  00003650    00000050     task.o (.text.ADC1_IRQHandler)
                  000036a0    00000050     ti_msp_dl_config.o (.text.SysTick_Config)
                  000036f0    00000050     it.o (.text.SysTick_Handler)
                  00003740    00000050     imu963ra.o (.text._ZL23imu963ra_mag_self_checkv)
                  00003790    0000004e     imu963ra.o (.text._ZL28imu963ra_acc_gyro_self_checkv)
                  000037de    00000002     --HOLE-- [fill = 0]
                  000037e0    0000004c     ti_msp_dl_config.o (.text.DL_ADC12_initSingleSample)
                  0000382c    0000004c     driverlib.a : dl_adc12.o (.text.DL_ADC12_setClockConfig)
                  00003878    0000004c                 : dl_sysctl_mspm0g1x0x_g3x0x.o (.text.DL_SYSCTL_switchMCLKfromSYSOSCtoHSCLK)
                  000038c4    0000004c                 : dl_uart.o (.text.DL_UART_init)
                  00003910    0000004c     ti_msp_dl_config.o (.text.DL_UART_setBaudRateDivisor)
                  0000395c    0000004c     imu963ra.o (.text._ZL31imu963ra_read_acc_gyro_registerh)
                  000039a8    0000004a     ti_msp_dl_config.o (.text.DL_ADC12_configConversionMem)
                  000039f2    0000004a     task.o (.text._Z13UART_TransmitP9UART_RegsPht)
                  00003a3c    0000004a     N20_Motor.o (.text._ZN9N20_MotorC2EP12GPTIMER_Regs17DL_TIMER_CC_INDEXS2_P7Encoderfff)
                  00003a86    00000002     --HOLE-- [fill = 0]
                  00003a88    0000004a     libclang_rt.builtins.a : fixdfsi.S.obj (.text.__fixdfsi)
                  00003ad2    00000002     --HOLE-- [fill = 0]
                  00003ad4    00000048     driverlib.a : dl_spi.o (.text.DL_SPI_init)
                  00003b1c    00000048     ti_msp_dl_config.o (.text.SYSCFG_DL_SYSCTL_init)
                  00003b64    00000048     CCD.o (.text._ZN3CCD7HandlerEv)
                  00003bac    00000048     LS7366R.o (.text._ZN7LS7366R5resetEv)
                  00003bf4    00000048     imu963ra.o (.text.imu963ra_get_acc)
                  00003c3c    00000048     imu963ra.o (.text.imu963ra_get_gyro)
                  00003c84    00000046     driverlib.a : dl_dma.o (.text.DL_DMA_initChannel)
                  00003cca    00000002     --HOLE-- [fill = 0]
                  00003ccc    00000044     imu963ra.o (.text._ZL32imu963ra_read_acc_gyro_registershPhj)
                  00003d10    00000040     driverlib.a : dl_timer.o (.text.DL_Timer_setCaptureCompareOutCtl)
                  00003d50    00000040     ti_msp_dl_config.o (.text.SYSCFG_DL_SPI_ENCODER_init)
                  00003d90    00000040     ti_msp_dl_config.o (.text.SYSCFG_DL_SPI_IMU_init)
                  00003dd0    00000040     imu963ra.o (.text._ZL20imu963ra_connect_maghh)
                  00003e10    00000040     imu963ra.o (.text._ZL32imu963ra_write_acc_gyro_registerhh)
                  00003e50    00000040     Controller.o (.text._ZN10ControllerC2EP7Chassis)
                  00003e90    00000040     libclang_rt.builtins.a : aeabi_uidivmod.S.obj (.text.__aeabi_uidivmod)
                  00003ed0    00000040                            : extendsfdf2.S.obj (.text.__extendsfdf2)
                  00003f10    0000003c     driverlib.a : dl_timer.o (.text.DL_Timer_setCaptureCompareCtl)
                  00003f4c    0000003c     PID_Controller.o (.text._ZN14PID_ControllerC2EP7Chassis)
                  00003f88    0000003c     libclang_rt.builtins.a : floatsisf.S.obj (.text.__floatsisf)
                  00003fc4    0000003c                            : comparesf2.S.obj (.text.__gtsf2)
                  00004000    0000003a                            : comparesf2.S.obj (.text.__eqsf2)
                  0000403a    00000002     --HOLE-- [fill = 0]
                  0000403c    0000003a                            : muldsi3.S.obj (.text.__muldsi3)
                  00004076    00000002     --HOLE-- [fill = 0]
                  00004078    00000038     driverlib.a : dl_dma.o (.text.DL_DMA_setTrigger)
                  000040b0    00000038     ti_msp_dl_config.o (.text.DL_Timer_setPublisherChanID)
                  000040e8    00000038     task.o (.text.__cxx_global_var_init.3)
                  00004120    00000038     task.o (.text.__cxx_global_var_init.4)
                  00004158    00000038     libclang_rt.builtins.a : fixsfsi.S.obj (.text.__fixsfsi)
                  00004190    00000034     driverlib.a : dl_timer.o (.text.DL_Timer_setCaptCompUpdateMethod)
                  000041c4    00000034                 : dl_timer.o (.text.DL_Timer_setCaptureCompareAction)
                  000041f8    00000034                 : dl_timer.o (.text.DL_Timer_setCaptureCompareInput)
                  0000422c    00000034                 : dl_timer.o (.text.DL_Timer_setClockConfig)
                  00004260    00000034     task.o (.text._GLOBAL__sub_I_task.cpp)
                  00004294    00000034     CCD.o (.text._ZL17__NVIC_DisableIRQ4IRQn)
                  000042c8    00000034     task.o (.text.__cxx_global_var_init.9)
                  000042fc    00000032     hal.o (.text.spi_write_8bit_register)
                  0000432e    00000002     --HOLE-- [fill = 0]
                  00004330    00000030     ti_msp_dl_config.o (.text.DL_SPI_setFIFOThreshold)
                  00004360    00000030     task.o (.text._ZL21DL_ADC12_getMemResultP10ADC12_Regs16DL_ADC12_MEM_IDX)
                  00004390    00000030     CCD.o (.text._ZL22DL_DMA_setTransferSizeP8DMA_Regsht)
                  000043c0    00000030     Encoder.o (.text._ZN7Encoder15overflow_updateEv)
                  000043f0    0000002c     task.o (.text.ADC0_IRQHandler)
                  0000441c    0000002c     ti_msp_dl_config.o (.text.DL_ADC12_setDMASamplesCnt)
                  00004448    0000002c     driverlib.a : dl_timer.o (.text.DL_Timer_setCaptureCompareValue)
                  00004474    0000002c     CCD.o (.text._ZL16__NVIC_EnableIRQ4IRQn)
                  000044a0    0000002c     task.o (.text._ZL16__NVIC_EnableIRQ4IRQn)
                  000044cc    0000002c     task.o (.text._ZL22__NVIC_ClearPendingIRQ4IRQn)
                  000044f8    0000002c     libclang_rt.builtins.a : floatsidf.S.obj (.text.__floatsidf)
                  00004524    00000028     driverlib.a : dl_adc12.o (.text.DL_Common_updateReg)
                  0000454c    00000028                 : dl_dma.o (.text.DL_Common_updateReg)
                  00004574    00000028                 : dl_spi.o (.text.DL_Common_updateReg)
                  0000459c    00000028                 : dl_sysctl_mspm0g1x0x_g3x0x.o (.text.DL_Common_updateReg)
                  000045c4    00000028                 : dl_timer.o (.text.DL_Common_updateReg)
                  000045ec    00000028                 : dl_uart.o (.text.DL_Common_updateReg)
                  00004614    00000028     ti_msp_dl_config.o (.text.DL_Common_updateReg)
                  0000463c    00000028     ti_msp_dl_config.o (.text.DL_Timer_enableEvent)
                  00004664    00000028     CCD.o (.text._ZL17DL_DMA_setSrcAddrP8DMA_Regshj)
                  0000468c    00000028     CCD.o (.text._ZL18DL_DMA_setDestAddrP8DMA_Regshj)
                  000046b4    00000028     Encoder.o (.text._ZN7Encoder7HandlerEv)
                  000046dc    00000028     LS7366R.o (.text._ZN7LS7366RC2EP8SPI_RegsP9GPIO_Regsjj)
                  00004704    00000028     task.o (.text.__cxx_global_var_init)
                  0000472c    00000028     libclang_rt.builtins.a : floatunsisf.S.obj (.text.__floatunsisf)
                  00004754    00000028     it.o (.text.delay_ms)
                  0000477c    00000028     libc.a : boot_cortex_m.c.obj (.text:_c_int00_noargs)
                  000047a4    00000026     CCD.o (.text._ZL20DL_DMA_enableChannelP8DMA_Regsh)
                  000047ca    00000026     task.o (.text._ZL21DL_DMA_disableChannelP8DMA_Regsh)
                  000047f0    00000026     Remote.o (.text._ZN6RemoteC2EP9UART_Regs)
                  00004816    00000002     --HOLE-- [fill = 0]
                  00004818    00000024     ti_msp_dl_config.o (.text.DL_SPI_setBitRateSerialClockDivider)
                  0000483c    00000024     driverlib.a : dl_spi.o (.text.DL_SPI_setClockConfig)
                  00004860    00000024                 : dl_uart.o (.text.DL_UART_setClockConfig)
                  00004884    00000024     CCD.o (.text._ZL28DL_ADC12_getMemResultAddressP10ADC12_Regs16DL_ADC12_MEM_IDX)
                  000048a8    00000024     CCD.o (.text._ZN3CCD4initEv)
                  000048cc    00000024     N20_Motor.o (.text._ZN9N20_Motor12pwm_set_dutyE17DL_TIMER_CC_INDEXt)
                  000048f0    00000022     task.o (.text._ZN3CCDC2Ev)
                  00004912    00000022     task.o (.text._ZN3IMUC2Ev)
                  00004934    00000020     ti_msp_dl_config.o (.text.DL_ADC12_setStartAddress)
                  00004954    00000020     driverlib.a : dl_sysctl_mspm0g1x0x_g3x0x.o (.text.DL_CORE_configInstruction)
                  00004974    00000020     ti_msp_dl_config.o (.text.DL_GPIO_initPeripheralInputFunction)
                  00004994    00000020     ti_msp_dl_config.o (.text.DL_SYSCTL_setFlashWaitState)
                  000049b4    00000020     driverlib.a : dl_sysctl_mspm0g1x0x_g3x0x.o (.text.DL_SYSCTL_setHFXTFrequencyRange)
                  000049d4    00000020                 : dl_timer.o (.text.DL_Timer_setCounterValueAfterEnable)
                  000049f4    0000001e     ti_msp_dl_config.o (.text.DL_ADC12_setPowerDownMode)
                  00004a12    0000001e     ti_msp_dl_config.o (.text.DL_UART_setOversampling)
                  00004a30    0000001e     IMU.o (.text._ZN3IMU7HandlerEv)
                  00004a4e    00000002     --HOLE-- [fill = 0]
                  00004a50    0000001c     ti_msp_dl_config.o (.text.DL_ADC12_clearInterruptStatus)
                  00004a6c    0000001c     ti_msp_dl_config.o (.text.DL_ADC12_enableDMA)
                  00004a88    0000001c     ti_msp_dl_config.o (.text.DL_ADC12_enableDMATrigger)
                  00004aa4    0000001c     ti_msp_dl_config.o (.text.DL_ADC12_enableInterrupt)
                  00004ac0    0000001c     ti_msp_dl_config.o (.text.DL_GPIO_initPeripheralOutputFunction)
                  00004adc    0000001c     ti_msp_dl_config.o (.text.DL_SYSCTL_setSYSOSCFreq)
                  00004af8    0000001c     ti_msp_dl_config.o (.text.DL_SYSCTL_setULPCLKDivider)
                  00004b14    0000001c     ti_msp_dl_config.o (.text.DL_Timer_enableInterrupt)
                  00004b30    0000001c     ti_msp_dl_config.o (.text.DL_UART_enableInterrupt)
                  00004b4c    0000001c     task.o (.text.TIMG12_IRQHandler)
                  00004b68    0000001c     task.o (.text._ZL24DL_ADC12_startConversionP10ADC12_Regs)
                  00004b84    0000001a     ti_msp_dl_config.o (.text.DL_ADC12_setSubscriberChanID)
                  00004b9e    0000001a     Encoder.o (.text._ZN7EncoderC2EPl)
                  00004bb8    00000018     ti_msp_dl_config.o (.text.DL_ADC12_enablePower)
                  00004bd0    00000018     ti_msp_dl_config.o (.text.DL_ADC12_reset)
                  00004be8    00000018     ti_msp_dl_config.o (.text.DL_ADC12_setSampleTime0)
                  00004c00    00000018     ti_msp_dl_config.o (.text.DL_GPIO_enableOutput)
                  00004c18    00000018     ti_msp_dl_config.o (.text.DL_GPIO_enablePower)
                  00004c30    00000018     ti_msp_dl_config.o (.text.DL_GPIO_initDigitalOutput)
                  00004c48    00000018     ti_msp_dl_config.o (.text.DL_GPIO_initPeripheralAnalogFunction)
                  00004c60    00000018     ti_msp_dl_config.o (.text.DL_GPIO_reset)
                  00004c78    00000018     ti_msp_dl_config.o (.text.DL_SPI_enable)
                  00004c90    00000018     ti_msp_dl_config.o (.text.DL_SPI_enablePower)
                  00004ca8    00000018     ti_msp_dl_config.o (.text.DL_SPI_reset)
                  00004cc0    00000018     ti_msp_dl_config.o (.text.DL_SYSCTL_setBORThreshold)
                  00004cd8    00000018     driverlib.a : dl_sysctl_mspm0g1x0x_g3x0x.o (.text.DL_SYSCTL_setHFXTStartupTime)
                  00004cf0    00000018                 : dl_sysctl_mspm0g1x0x_g3x0x.o (.text.DL_SYSCTL_setHSCLKSource)
                  00004d08    00000018     ti_msp_dl_config.o (.text.DL_Timer_enablePower)
                  00004d20    00000018     ti_msp_dl_config.o (.text.DL_Timer_reset)
                  00004d38    00000018     driverlib.a : dl_timer.o (.text.DL_Timer_setLoadValue)
                  00004d50    00000018     ti_msp_dl_config.o (.text.DL_UART_enablePower)
                  00004d68    00000018     ti_msp_dl_config.o (.text.DL_UART_reset)
                  00004d80    00000018     ti_msp_dl_config.o (.text.SYSCFG_DL_DMA_CH0_init)
                  00004d98    00000018     hal.o (.text._ZL13DL_SPI_isBusyP8SPI_Regs)
                  00004db0    00000018     task.o (.text._ZL14DL_UART_isBusyP9UART_Regs)
                  00004dc8    00000018     CCD.o (.text._ZL15DL_GPIO_setPinsP9GPIO_Regsj)
                  00004de0    00000018     LS7366R.o (.text._ZL15DL_GPIO_setPinsP9GPIO_Regsj)
                  00004df8    00000018     imu963ra.o (.text._ZL15DL_GPIO_setPinsP9GPIO_Regsj)
                  00004e10    00000018     task.o (.text._ZL15DL_GPIO_setPinsP9GPIO_Regsj)
                  00004e28    00000018     it.o (.text._ZL18DL_GPIO_togglePinsP9GPIO_Regsj)
                  00004e40    00000018     hal.o (.text._ZL20DL_SPI_isRXFIFOEmptyP8SPI_Regs)
                  00004e58    00000018     Buzzer.o (.text._ZL20DL_Timer_stopCounterP12GPTIMER_Regs)
                  00004e70    00000018     Buzzer.o (.text._ZL21DL_Timer_startCounterP12GPTIMER_Regs)
                  00004e88    00000018     CCD.o (.text._ZL21DL_Timer_startCounterP12GPTIMER_Regs)
                  00004ea0    00000018     N20_Motor.o (.text._ZL21DL_Timer_startCounterP12GPTIMER_Regs)
                  00004eb8    00000018     N20_Motor.o (.text._ZN9N20_Motor7HandlerEv)
                  00004ed0    00000018     task.o (.text.__cxx_global_var_init.1)
                  00004ee8    00000018     task.o (.text.__cxx_global_var_init.2)
                  00004f00    00000018     control.o (.text.main)
                  00004f18    00000016     ti_msp_dl_config.o (.text.DL_ADC12_enableConversions)
                  00004f2e    00000016     driverlib.a : dl_uart.o (.text.DL_UART_disable)
                  00004f44    00000016     ti_msp_dl_config.o (.text.DL_UART_enable)
                  00004f5a    00000016     hal.o (.text._ZL20DL_SPI_transmitData8P8SPI_Regsh)
                  00004f70    00000016     task.o (.text._ZL20DL_UART_transmitDataP9UART_Regsh)
                  00004f86    00000016     CCD.o (.text._ZL26DL_ADC12_enableConversionsP10ADC12_Regs)
                  00004f9c    00000016     task.o (.text._ZL26DL_ADC12_enableConversionsP10ADC12_Regs)
                  00004fb2    00000016     task.o (.text._ZL27DL_ADC12_disableConversionsP10ADC12_Regs)
                  00004fc8    00000016     libc.a : copy_zero_init.c.obj (.text:decompress:ZI:__TI_zero_init_nomemset)
                  00004fde    00000014     driverlib.a : dl_common.o (.text.DL_Common_delayCycles)
                  00004ff2    00000014     ti_msp_dl_config.o (.text.DL_GPIO_clearPins)
                  00005006    00000002     --HOLE-- [fill = 0]
                  00005008    00000014     driverlib.a : dl_sysctl_mspm0g1x0x_g3x0x.o (.text.DL_SYSCTL_disableHFCLKStartupMonitor)
                  0000501c    00000014                 : dl_sysctl_mspm0g1x0x_g3x0x.o (.text.DL_SYSCTL_disableSYSPLL)
                  00005030    00000014     ti_msp_dl_config.o (.text.DL_SYSCTL_disableSYSPLL)
                  00005044    00000014     driverlib.a : dl_sysctl_mspm0g1x0x_g3x0x.o (.text.DL_SYSCTL_enableHFCLKStartupMonitor)
                  00005058    00000014     ti_msp_dl_config.o (.text.DL_Timer_enableClock)
                  0000506c    00000014     ti_msp_dl_config.o (.text.DL_Timer_setCCPDirection)
                  00005080    00000014     QEI.o (.text._Z26register_LEFT_QEI_callbackPFvvE)
                  00005094    00000014     QEI.o (.text._Z27register_RIGHT_QEI_callbackPFvvE)
                  000050a8    00000014     Controller.o (.text._Z5atan2B6v15007ff)
                  000050bc    00000014     CCD.o (.text._ZL17DL_GPIO_clearPinsP9GPIO_Regsj)
                  000050d0    00000014     LS7366R.o (.text._ZL17DL_GPIO_clearPinsP9GPIO_Regsj)
                  000050e4    00000014     imu963ra.o (.text._ZL17DL_GPIO_clearPinsP9GPIO_Regsj)
                  000050f8    00000014     task.o (.text._ZL17DL_GPIO_clearPinsP9GPIO_Regsj)
                  0000510c    00000014     hal.o (.text._ZL19DL_SPI_receiveData8P8SPI_Regs)
                  00005120    00000014     task.o (.text._ZL19DL_UART_receiveDataP9UART_Regs)
                  00005134    00000014     N20_Motor.o (.text._ZN5MotorC2Ev)
                  00005148    00000014     Remote.o (.text._ZN6Remote7HandlerEv)
                  0000515c    00000014     task.o (.text.__cxx_global_var_init.10)
                  00005170    00000014     task.o (.text.__cxx_global_var_init.11)
                  00005184    00000014     task.o (.text.__cxx_global_var_init.6)
                  00005198    00000014     task.o (.text.__cxx_global_var_init.8)
                  000051ac    00000012     task.o (.text._ZL28DL_ADC12_getPendingInterruptP10ADC12_Regs)
                  000051be    00000012     Buzzer.o (.text._ZN6Buzzer4stopEv)
                  000051d0    00000012     Buzzer.o (.text._ZN6Buzzer5startEv)
                  000051e2    00000012     N20_Motor.o (.text._ZN9N20_Motor4initEv)
                  000051f4    00000012     libc.a : memcpy16.S.obj (.text:TI_memcpy_small)
                  00005206    00000012            : copy_decompress_none.c.obj (.text:decompress:none)
                  00005218    00000010     driverlib.a : dl_sysctl_mspm0g1x0x_g3x0x.o (.text.DL_CORE_getInstructionConfig)
                  00005228    00000010                 : dl_sysctl_mspm0g1x0x_g3x0x.o (.text.DL_SYSCTL_disableHFXT)
                  00005238    00000010     ti_msp_dl_config.o (.text.DL_SYSCTL_disableHFXT)
                  00005248    00000010     ti_msp_dl_config.o (.text.SYSCFG_DL_SYSTICK_init)
                  00005258    00000010     task.o (.text._Z16LEFT_QEI_Handlerv)
                  00005268    00000010     task.o (.text._Z17RIGHT_QEI_Handlerv)
                  00005278    00000010     Buzzer.o (.text._ZN6BuzzerC2EP12GPTIMER_Regs)
                  00005288    00000010     task.o (.text.__cxx_global_var_init.5)
                  00005298    00000010     task.o (.text.__cxx_global_var_init.7)
                  000052a8    0000000c     driverlib.a : dl_sysctl_mspm0g1x0x_g3x0x.o (.text.DL_SYSCTL_getClockStatus)
                  000052b4    00000008     libc.a : aeabi_portable.c.obj (.text.__aeabi_errno_addr)
                  000052bc    00000008     libclang_rt.builtins.a : aeabi_memcpy.S.obj (.text.__aeabi_memcpy)
                  000052c4    00000006     libc.a : s_atanf.c.obj (.text.OUTLINED_FUNCTION_0)
                  000052ca    00000002     --HOLE-- [fill = 0]
                  000052cc    00000010     libclang_rt.builtins.a : divsf3.S.obj (.tramp.__aeabi_fdiv.1)
                  000052dc    00000004     startup_mspm0g350x_ticlang.o (.text.Default_Handler)
                  000052e0    00000004     libc.a : s_atanf.c.obj (.text.OUTLINED_FUNCTION_1)
                  000052e4    00000010     libclang_rt.builtins.a : addsf3.S.obj (.tramp.__aeabi_fadd.1)
                  000052f4    00000004     startup_mspm0g350x_ticlang.o (.text.Reset_Handler)
                  000052f8    00000010     libc.a : boot_cortex_m.c.obj (.tramp._c_int00_noargs.1)
                  00005308    00000004            : pre_init.c.obj (.text._system_pre_init)
                  0000530c    00000004            : exit.c.obj (.text:abort)

.cinit     0    00005be0    00000268     
                  00005be0    00000244     (.cinit..data.load) [load image, compression = lzss]
                  00005e24    0000000c     (__TI_handler_table)
                  00005e30    00000008     (.cinit..bss.load) [load image, compression = zero_init]
                  00005e38    00000010     (__TI_cinit_table)

.rodata    0    00005310    000008c8     
                  00005310    00000804     arm_cortexM0l_math.a : arm_common_tables.o (.rodata.sinTable_f32)
                  00005b14    00000028     ti_msp_dl_config.o (.rodata.gSYSPLLConfig)
                  00005b3c    00000020     libc.a : s_atanf.c.obj (.rodata.cst16)
                  00005b5c    00000018     ti_msp_dl_config.o (.rodata.gDMA_CH0Config)
                  00005b74    0000000a     ti_msp_dl_config.o (.rodata.gSPI_ENCODER_config)
                  00005b7e    0000000a     ti_msp_dl_config.o (.rodata.gSPI_IMU_config)
                  00005b88    0000000a     ti_msp_dl_config.o (.rodata.gUART_0Config)
                  00005b92    00000002     ti_msp_dl_config.o (.rodata.gSPI_ENCODER_clockConfig)
                  00005b94    00000008     ti_msp_dl_config.o (.rodata.gADC_CCDClockConfig)
                  00005b9c    00000008     ti_msp_dl_config.o (.rodata.gADC_VINClockConfig)
                  00005ba4    00000008     ti_msp_dl_config.o (.rodata.gPWM_BUZZERConfig)
                  00005bac    00000008     ti_msp_dl_config.o (.rodata.gPWM_MOTOR0Config)
                  00005bb4    00000008     ti_msp_dl_config.o (.rodata.gPWM_MOTOR1Config)
                  00005bbc    00000008     ti_msp_dl_config.o (.rodata.gTIM_CCDConfig)
                  00005bc4    00000003     ti_msp_dl_config.o (.rodata.gPWM_BUZZERClockConfig)
                  00005bc7    00000003     ti_msp_dl_config.o (.rodata.gPWM_MOTOR0ClockConfig)
                  00005bca    00000003     ti_msp_dl_config.o (.rodata.gPWM_MOTOR1ClockConfig)
                  00005bcd    00000003     ti_msp_dl_config.o (.rodata.gTIM_CCDClockConfig)
                  00005bd0    00000002     ti_msp_dl_config.o (.rodata.gSPI_IMU_clockConfig)
                  00005bd2    00000002     ti_msp_dl_config.o (.rodata.gUART_0ClockConfig)
                  00005bd4    00000004     --HOLE-- [fill = 0]

.init_array 
*          0    00005bd8    00000008     
                  00005bd8    00000004     task.o (.init_array)
                  00005bdc    00000004     --HOLE-- [fill = 0]

.data      0    20200000    00000993     UNINITIALIZED
                  20200000    000002d8     task.o (.data.chassis)
                  202002d8    00000200     Chassis.o (.data.ccd_norm)
                  202004d8    00000194     task.o (.data.ccd)
                  2020066c    000000dc     task.o (.data.remote)
                  20200748    00000080     task.o (.data.temp_rx)
                  202007c8    00000050     task.o (.data.controller)
                  20200818    00000050     task.o (.data.imu)
                  20200868    0000002c     task.o (.data.pid_controller)
                  20200894    00000028     task.o (.data.left_motor)
                  202008bc    00000028     task.o (.data.right_motor)
                  202008e4    00000024     task.o (.data.ls7366r)
                  20200908    00000014     task.o (.data.left_encoder)
                  2020091c    00000014     task.o (.data.right_encoder)
                  20200930    0000000c     imu963ra.o (.data.imu963ra_transition_factor)
                  2020093c    00000004     task.o (.data.ADC_VIN_cnt)
                  20200940    00000004     task.o (.data.ADC_cnt)
                  20200944    00000004     task.o (.data.CCD_cnt)
                  20200948    00000004     CCD.o (.data.DMA_EN_cnt)
                  2020094c    00000004     task.o (.data._ZZ14signal_HandlervE10temp_utick)
                  20200950    00000004     libc.a : aeabi_portable.c.obj (.data.__aeabi_errno)
                  20200954    00000004     task.o (.data.buzzer)
                  20200958    00000004     Remote.o (.data.crc_err)
                  2020095c    00000004     imu963ra.o (.data.imu963ra_state)
                  20200960    00000004     Remote.o (.data.remote_cnt)
                  20200964    00000004     task.o (.data.uart1_cnt)
                  20200968    00000004     task.o (.data.uart1_state)
                  2020096c    00000004     it.o (.data.utick)
                  20200970    00000004     task.o (.data.vin)
                  20200974    00000002     Remote.o (.data.crc1)
                  20200976    00000002     task.o (.data.end_flag)
                  20200978    00000002     imu963ra.o (.data.imu963ra_acc_x)
                  2020097a    00000002     imu963ra.o (.data.imu963ra_acc_y)
                  2020097c    00000002     imu963ra.o (.data.imu963ra_acc_z)
                  2020097e    00000002     imu963ra.o (.data.imu963ra_gyro_x)
                  20200980    00000002     imu963ra.o (.data.imu963ra_gyro_y)
                  20200982    00000002     imu963ra.o (.data.imu963ra_gyro_z)
                  20200984    00000002     imu963ra.o (.data.imu963ra_mag_x)
                  20200986    00000002     imu963ra.o (.data.imu963ra_mag_y)
                  20200988    00000002     imu963ra.o (.data.imu963ra_mag_z)
                  2020098a    00000002     task.o (.data.power_vin)
                  2020098c    00000002     task.o (.data.start_flag)
                  2020098e    00000002     task.o (.data.uart1_rx_len)
                  20200990    00000001     task.o (.data._ZZ10test_powervE10power_flag)
                  20200991    00000001     task.o (.data.gCheckADC)
                  20200992    00000001     task.o (.data.signal_en_flag)

.bss       0    20200994    00000236     UNINITIALIZED
                  20200994    000000bc     (.common:gPWM_MOTOR0Backup)
                  20200a50    000000bc     (.common:gPWM_MOTOR1Backup)
                  20200b0c    00000064     task.o (.bss.uart1_rx_buf)
                  20200b70    00000028     (.common:gSPI_ENCODERBackup)
                  20200b98    00000028     (.common:gSPI_IMUBackup)
                  20200bc0    00000004     QEI.o (.bss.LEFT_QEI_callback)
                  20200bc4    00000004     QEI.o (.bss.RIGHT_QEI_callback)
                  20200bc8    00000002     Remote.o (.bss.crc)

.stack     0    20207e00    00000200     UNINITIALIZED
                  20207e00    00000004     libc.a : boot_cortex_m.c.obj (.stack)
                  20207e04    000001fc     --HOLE--

__llvm_prf_cnts 
*          0    20200000    00000000     UNINITIALIZED

__llvm_prf_bits 
*          0    20200000    00000000     UNINITIALIZED

MODULE SUMMARY

       Module                         code    ro data   rw data
       ------                         ----    -------   -------
    .\
       ti_msp_dl_config.o             3364    160       456    
       startup_mspm0g350x_ticlang.o   8       192       0      
       control.o                      24      0         0      
    +--+------------------------------+-------+---------+---------+
       Total:                         3396    352       456    
                                                               
    .\code\
       task.o                         2372    4         1983   
       Chassis.o                      1840    0         512    
       imu963ra.o                     1374    0         34     
       N20_Motor.o                    912     0         0      
       IMU.o                          890     0         0      
       Controller.o                   792     0         0      
       CCD.o                          688     0         4      
       LS7366R.o                      574     0         0      
       Remote.o                       518     0         12     
       hal.o                          464     0         0      
       PID_Controller.o               222     0         0      
       it.o                           144     0         4      
       Encoder.o                      114     0         0      
       Buzzer.o                       100     0         0      
       QEI.o                          40      0         8      
    +--+------------------------------+-------+---------+---------+
       Total:                         11044   4         2557   
                                                               
    C:/ti/mspm0_sdk_2_01_00_03/source/third_party/CMSIS/DSP/lib/ticlang/m0p/arm_cortexM0l_math.a
       arm_common_tables.o            0       2052      0      
       arm_sin_cos_f32.o              752     0         0      
    +--+------------------------------+-------+---------+---------+
       Total:                         752     2052      0      
                                                               
    C:/ti/mspm0_sdk_2_01_00_03/source/ti/driverlib/lib/ticlang/m0p/mspm0g1x0x_g3x0x/driverlib.a
       dl_timer.o                     980     0         0      
       dl_sysctl_mspm0g1x0x_g3x0x.o   668     0         0      
       dl_dma.o                       250     0         0      
       dl_uart.o                      174     0         0      
       dl_spi.o                       148     0         0      
       dl_adc12.o                     116     0         0      
       dl_common.o                    20      0         0      
    +--+------------------------------+-------+---------+---------+
       Total:                         2356    0         0      
                                                               
    F:\ti\ccs1271\ccs\tools\compiler\ti-cgt-armllvm_3.2.2.LTS\lib\armv6m-ti-none-eabi/c/libc.a
       s_atanf.c.obj                  466     32        0      
       e_atan2f.c.obj                 304     0         0      
       e_sqrtf.c.obj                  168     0         0      
       copy_decompress_lzss.c.obj     120     0         0      
       autoinit.c.obj                 84      0         0      
       boot_cortex_m.c.obj            56      0         0      
       copy_zero_init.c.obj           22      0         0      
       copy_decompress_none.c.obj     18      0         0      
       memcpy16.S.obj                 18      0         0      
       aeabi_portable.c.obj           8       0         4      
       exit.c.obj                     4       0         0      
       pre_init.c.obj                 4       0         0      
    +--+------------------------------+-------+---------+---------+
       Total:                         1272    32        4      
                                                               
    F:\ti\ccs1271\ccs\tools\compiler\ti-cgt-armllvm_3.2.2.LTS\lib\clang/15.0.7/lib/armv6m-ti-none-eabi/libclang_rt.builtins.a
       adddf3.S.obj                   402     0         0      
       divdf3.S.obj                   268     0         0      
       addsf3.S.obj                   232     0         0      
       muldf3.S.obj                   228     0         0      
       divsf3.S.obj                   146     0         0      
       mulsf3.S.obj                   140     0         0      
       comparesf2.S.obj               118     0         0      
       truncdfsf2.S.obj               116     0         0      
       aeabi_fcmp.S.obj               98      0         0      
       fixdfsi.S.obj                  74      0         0      
       aeabi_uidivmod.S.obj           64      0         0      
       extendsfdf2.S.obj              64      0         0      
       floatsisf.S.obj                60      0         0      
       muldsi3.S.obj                  58      0         0      
       fixsfsi.S.obj                  56      0         0      
       floatsidf.S.obj                44      0         0      
       floatunsisf.S.obj              40      0         0      
       aeabi_memcpy.S.obj             8       0         0      
       aeabi_div0.c.obj               2       0         0      
    +--+------------------------------+-------+---------+---------+
       Total:                         2218    0         0      
                                                               
       Stack:                         0       0         512    
       Linker Generated:              0       616       0      
    +--+------------------------------+-------+---------+---------+
       Grand Total:                   21038   3056      3529   


LINKER GENERATED COPY TABLES

__TI_cinit_table @ 00005e38 records: 2, size/record: 8, table size: 16
	.data: load addr=00005be0, load size=00000244 bytes, run addr=20200000, run size=00000993 bytes, compression=lzss
	.bss: load addr=00005e30, load size=00000008 bytes, run addr=20200994, run size=00000236 bytes, compression=zero_init


LINKER GENERATED HANDLER TABLE

__TI_handler_table @ 00005e24 records: 3, size/record: 4, table size: 12
	index: 0, handler: __TI_decompress_lzss
	index: 1, handler: __TI_decompress_none
	index: 2, handler: __TI_zero_init


FAR CALL TRAMPOLINES

callee name               trampoline name
   callee addr  tramp addr   call addr  call info
--------------  -----------  ---------  ----------------
__aeabi_fdiv              $Tramp$TT$L$PI$$__aeabi_fdiv
   00002ef5     000052cc     000052c8   libc.a : s_atanf.c.obj (.text.OUTLINED_FUNCTION_0)
__aeabi_fadd              $Tramp$TT$L$PI$$__aeabi_fadd
   000023c3     000052e4     000052e2   libc.a : s_atanf.c.obj (.text.OUTLINED_FUNCTION_1)
_c_int00_noargs           $Tramp$TT$L$PI$$_c_int00_noargs
   0000477d     000052f8     000052f4   startup_mspm0g350x_ticlang.o (.text.Reset_Handler)

[3 trampolines]
[3 trampoline calls]


GLOBAL SYMBOLS: SORTED ALPHABETICALLY BY Name 

address   name                                                             
-------   ----                                                             
000043f1  ADC0_IRQHandler                                                  
00003651  ADC1_IRQHandler                                                  
2020093c  ADC_VIN_cnt                                                      
20200940  ADC_cnt                                                          
000052dd  AES_IRQHandler                                                   
0000530c  C$$EXIT                                                          
000052dd  CANFD0_IRQHandler                                                
20200944  CCD_cnt                                                          
000052dd  DAC0_IRQHandler                                                  
0000382d  DL_ADC12_setClockConfig                                          
00004fdf  DL_Common_delayCycles                                            
00003c85  DL_DMA_initChannel                                               
00003ad5  DL_SPI_init                                                      
0000483d  DL_SPI_setClockConfig                                            
000020fd  DL_SYSCTL_configSYSPLL                                           
00003315  DL_SYSCTL_setHFCLKSourceHFXTParams                               
00003879  DL_SYSCTL_switchMCLKfromSYSOSCtoHSCLK                            
000021e9  DL_TimerA_initPWMMode                                            
00001ded  DL_Timer_initPWMMode                                             
00004191  DL_Timer_setCaptCompUpdateMethod                                 
000041c5  DL_Timer_setCaptureCompareAction                                 
00003f11  DL_Timer_setCaptureCompareCtl                                    
000041f9  DL_Timer_setCaptureCompareInput                                  
00003d11  DL_Timer_setCaptureCompareOutCtl                                 
00004449  DL_Timer_setCaptureCompareValue                                  
0000422d  DL_Timer_setClockConfig                                          
000038c5  DL_UART_init                                                     
00004861  DL_UART_setClockConfig                                           
20200948  DMA_EN_cnt                                                       
000052dd  DMA_IRQHandler                                                   
000052dd  Default_Handler                                                  
000052dd  GROUP0_IRQHandler                                                
000052dd  GROUP1_IRQHandler                                                
000052dd  HardFault_Handler                                                
000052dd  I2C0_IRQHandler                                                  
000052dd  I2C1_IRQHandler                                                  
20200bc0  LEFT_QEI_callback                                                
000052dd  NMI_Handler                                                      
000052dd  PendSV_Handler                                                   
20200bc4  RIGHT_QEI_callback                                               
000052dd  RTC_IRQHandler                                                   
000052f5  Reset_Handler                                                    
00005bd8  SHT$$INIT_ARRAY$$Base                                            
00005bdc  SHT$$INIT_ARRAY$$Limit                                           
000052dd  SPI0_IRQHandler                                                  
000052dd  SPI1_IRQHandler                                                  
000034a1  SPI_transmitData                                                 
000052dd  SVC_Handler                                                      
00002b25  SYSCFG_DL_ADC_CCD_init                                           
00003245  SYSCFG_DL_ADC_VIN_init                                           
00004d81  SYSCFG_DL_DMA_CH0_init                                           
000030e7  SYSCFG_DL_DMA_init                                               
00001a8d  SYSCFG_DL_GPIO_init                                              
00003441  SYSCFG_DL_PWM_BUZZER_init                                        
00002cdd  SYSCFG_DL_PWM_MOTOR0_init                                        
00002ded  SYSCFG_DL_PWM_MOTOR1_init                                        
00003d51  SYSCFG_DL_SPI_ENCODER_init                                       
00003d91  SYSCFG_DL_SPI_IMU_init                                           
00003b1d  SYSCFG_DL_SYSCTL_init                                            
00005249  SYSCFG_DL_SYSTICK_init                                           
00002d65  SYSCFG_DL_TIM_CCD_init                                           
000035a9  SYSCFG_DL_UART_0_init                                            
00003379  SYSCFG_DL_init                                                   
00002491  SYSCFG_DL_initPower                                              
000036f1  SysTick_Handler                                                  
000052dd  TIMA0_IRQHandler                                                 
000052dd  TIMA1_IRQHandler                                                 
000052dd  TIMG0_IRQHandler                                                 
00004b4d  TIMG12_IRQHandler                                                
000052dd  TIMG6_IRQHandler                                                 
000052dd  TIMG7_IRQHandler                                                 
000052dd  TIMG8_IRQHandler                                                 
000051f5  TI_memcpy_small                                                  
00002879  UART0_IRQHandler                                                 
000052dd  UART1_IRQHandler                                                 
000052dd  UART2_IRQHandler                                                 
000052dd  UART3_IRQHandler                                                 
00002639  _Z10test_powerv                                                  
000039f3  _Z13UART_TransmitP9UART_RegsPht                                  
00003165  _Z14signal_Handlerv                                              
00005259  _Z16LEFT_QEI_Handlerv                                            
00005269  _Z17RIGHT_QEI_Handlerv                                           
00005081  _Z26register_LEFT_QEI_callbackPFvvE                              
00005095  _Z27register_RIGHT_QEI_callbackPFvvE                             
000050a9  _Z5atan2B6v15007ff                                               
000007f1  _ZN10Controller7HandlerEv                                        
00003e51  _ZN10ControllerC1EP7Chassis                                      
00003e51  _ZN10ControllerC2EP7Chassis                                      
00002a81  _ZN14PID_Controller7HandlerEv                                    
00003f4d  _ZN14PID_ControllerC1EP7Chassis                                  
00003f4d  _ZN14PID_ControllerC2EP7Chassis                                  
000048a9  _ZN3CCD4initEv                                                   
00003b65  _ZN3CCD7HandlerEv                                                
000026f9  _ZN3CCD7SI_sendEv                                                
000048f1  _ZN3CCDC2Ev                                                      
00001cd9  _ZN3IMU4initEv                                                   
00004a31  _ZN3IMU7HandlerEv                                                
00000d4d  _ZN3IMU8get_dataEv                                               
00004913  _ZN3IMUC2Ev                                                      
00005135  _ZN5MotorC2Ev                                                    
000051bf  _ZN6Buzzer4stopEv                                                
000051d1  _ZN6Buzzer5startEv                                               
00005279  _ZN6BuzzerC1EP12GPTIMER_Regs                                     
00005279  _ZN6BuzzerC2EP12GPTIMER_Regs                                     
00000f95  _ZN6Remote12process_dataEv                                       
00005149  _ZN6Remote7HandlerEv                                             
000047f1  _ZN6RemoteC1EP9UART_Regs                                         
000047f1  _ZN6RemoteC2EP9UART_Regs                                         
000000c1  _ZN7Chassis7HandlerEv                                            
00000ab5  _ZN7Chassis7processEv                                            
000034fd  _ZN7ChassisC1EP9N20_MotorS1_P3IMUP3CCDf                          
000034fd  _ZN7ChassisC2EP9N20_MotorS1_P3IMUP3CCDf                          
000043c1  _ZN7Encoder15overflow_updateEv                                   
000046b5  _ZN7Encoder7HandlerEv                                            
00004b9f  _ZN7EncoderC1EPl                                                 
00004b9f  _ZN7EncoderC2EPl                                                 
00002009  _ZN7LS7366R4initEhh                                              
00003bad  _ZN7LS7366R5resetEv                                              
00002929  _ZN7LS7366R7HandlerEv                                            
000046dd  _ZN7LS7366RC1EP8SPI_RegsP9GPIO_Regsjj                            
000046dd  _ZN7LS7366RC2EP8SPI_RegsP9GPIO_Regsjj                            
000048cd  _ZN9N20_Motor12pwm_set_dutyE17DL_TIMER_CC_INDEXt                 
00001329  _ZN9N20_Motor16output_intensityEv                                
00001bb9  _ZN9N20_Motor17measure_parameterEv                               
000051e3  _ZN9N20_Motor4initEv                                             
00004eb9  _ZN9N20_Motor7HandlerEv                                          
00003a3d  _ZN9N20_MotorC1EP12GPTIMER_Regs17DL_TIMER_CC_INDEXS2_P7Encoderfff
00003a3d  _ZN9N20_MotorC2EP12GPTIMER_Regs17DL_TIMER_CC_INDEXS2_P7Encoderfff
20208000  __STACK_END                                                      
00000200  __STACK_SIZE                                                     
00000000  __TI_ATRegion0_region_sz                                         
00000000  __TI_ATRegion0_src_addr                                          
00000000  __TI_ATRegion0_trg_addr                                          
00000000  __TI_ATRegion1_region_sz                                         
00000000  __TI_ATRegion1_src_addr                                          
00000000  __TI_ATRegion1_trg_addr                                          
00000000  __TI_ATRegion2_region_sz                                         
00000000  __TI_ATRegion2_src_addr                                          
00000000  __TI_ATRegion2_trg_addr                                          
00005e38  __TI_CINIT_Base                                                  
00005e48  __TI_CINIT_Limit                                                 
00005e48  __TI_CINIT_Warm                                                  
00005e24  __TI_Handler_Table_Base                                          
00005e30  __TI_Handler_Table_Limit                                         
000035fd  __TI_auto_init_nobinit                                           
00002ff9  __TI_decompress_lzss                                             
00005207  __TI_decompress_none                                             
ffffffff  __TI_pprof_out_hndl                                              
ffffffff  __TI_prof_data_size                                              
ffffffff  __TI_prof_data_start                                             
00000000  __TI_static_base__                                               
00004fc9  __TI_zero_init_nomemset                                          
000014df  __adddf3                                                         
000023c3  __addsf3                                                         
000030f1  __aeabi_d2f                                                      
00003a89  __aeabi_d2iz                                                     
000014df  __aeabi_dadd                                                     
00001efd  __aeabi_ddiv                                                     
000022d5  __aeabi_dmul                                                     
000014d5  __aeabi_dsub                                                     
20200950  __aeabi_errno                                                    
000052b5  __aeabi_errno_addr                                               
00003ed1  __aeabi_f2d                                                      
00004159  __aeabi_f2iz                                                     
000023c3  __aeabi_fadd                                                     
000033dd  __aeabi_fcmpeq                                                   
00003419  __aeabi_fcmpge                                                   
0000342d  __aeabi_fcmpgt                                                   
00003405  __aeabi_fcmple                                                   
000033f1  __aeabi_fcmplt                                                   
00002ef5  __aeabi_fdiv                                                     
00002c51  __aeabi_fmul                                                     
000023b9  __aeabi_fsub                                                     
000044f9  __aeabi_i2d                                                      
00003f89  __aeabi_i2f                                                      
00001667  __aeabi_idiv0                                                    
000052bd  __aeabi_memcpy                                                   
000052bd  __aeabi_memcpy4                                                  
000052bd  __aeabi_memcpy8                                                  
0000472d  __aeabi_ui2f                                                     
00003e91  __aeabi_uidiv                                                    
00003e91  __aeabi_uidivmod                                                 
ffffffff  __binit__                                                        
00004001  __cmpsf2                                                         
00001efd  __divdf3                                                         
00002ef5  __divsf3                                                         
00004001  __eqsf2                                                          
00003ed1  __extendsfdf2                                                    
00003a89  __fixdfsi                                                        
00004159  __fixsfsi                                                        
000044f9  __floatsidf                                                      
00003f89  __floatsisf                                                      
0000472d  __floatunsisf                                                    
00003fc5  __gesf2                                                          
00003fc5  __gtsf2                                                          
00004001  __lesf2                                                          
00004001  __ltsf2                                                          
UNDEFED   __mpu_init                                                       
000022d5  __muldf3                                                         
0000403d  __muldsi3                                                        
00002c51  __mulsf3                                                         
00004001  __nesf2                                                          
20207e00  __stack                                                          
20200000  __start___llvm_prf_bits                                          
20200000  __start___llvm_prf_cnts                                          
20200000  __stop___llvm_prf_bits                                           
20200000  __stop___llvm_prf_cnts                                           
000014d5  __subdf3                                                         
000023b9  __subsf3                                                         
000030f1  __truncdfsf2                                                     
0000477d  _c_int00_noargs                                                  
UNDEFED   _system_post_cinit                                               
00005309  _system_pre_init                                                 
0000530d  abort                                                            
00000501  arm_sin_cos_f32                                                  
0000195d  atan2f                                                           
00001161  atanf                                                            
ffffffff  binit                                                            
20200954  buzzer                                                           
202004d8  ccd                                                              
202002d8  ccd_norm                                                         
20200000  chassis                                                          
202007c8  controller                                                       
20200bc8  crc                                                              
20200974  crc1                                                             
20200958  crc_err                                                          
00004755  delay_ms                                                         
20200976  end_flag                                                         
20200991  gCheckADC                                                        
20200994  gPWM_MOTOR0Backup                                                
20200a50  gPWM_MOTOR1Backup                                                
20200b70  gSPI_ENCODERBackup                                               
20200b98  gSPI_IMUBackup                                                   
20200818  imu                                                              
20200978  imu963ra_acc_x                                                   
2020097a  imu963ra_acc_y                                                   
2020097c  imu963ra_acc_z                                                   
00003bf5  imu963ra_get_acc                                                 
00003c3d  imu963ra_get_gyro                                                
000031d5  imu963ra_get_mag                                                 
2020097e  imu963ra_gyro_x                                                  
20200980  imu963ra_gyro_y                                                  
20200982  imu963ra_gyro_z                                                  
00001669  imu963ra_init                                                    
20200984  imu963ra_mag_x                                                   
20200986  imu963ra_mag_y                                                   
20200988  imu963ra_mag_z                                                   
2020095c  imu963ra_state                                                   
20200930  imu963ra_transition_factor                                       
00000000  interruptVectors                                                 
20200908  left_encoder                                                     
20200894  left_motor                                                       
000027b9  loop                                                             
202008e4  ls7366r                                                          
00004f01  main                                                             
20200868  pid_controller                                                   
2020098a  power_vin                                                        
2020066c  remote                                                           
20200960  remote_cnt                                                       
2020091c  right_encoder                                                    
202008bc  right_motor                                                      
00002565  setup                                                            
20200992  signal_en_flag                                                   
00005310  sinTable_f32                                                     
000032ad  spi_read_8bit_register                                           
00002f77  spi_read_8bit_registers                                          
000042fd  spi_write_8bit_register                                          
000029d9  sqrtf                                                            
2020098c  start_flag                                                       
000017e9  task_handler                                                     
20200748  temp_rx                                                          
20200964  uart1_cnt                                                        
20200b0c  uart1_rx_buf                                                     
2020098e  uart1_rx_len                                                     
20200968  uart1_state                                                      
2020096c  utick                                                            
20200970  vin                                                              


GLOBAL SYMBOLS: SORTED BY Symbol Address 

address   name                                                             
-------   ----                                                             
00000000  __TI_ATRegion0_region_sz                                         
00000000  __TI_ATRegion0_src_addr                                          
00000000  __TI_ATRegion0_trg_addr                                          
00000000  __TI_ATRegion1_region_sz                                         
00000000  __TI_ATRegion1_src_addr                                          
00000000  __TI_ATRegion1_trg_addr                                          
00000000  __TI_ATRegion2_region_sz                                         
00000000  __TI_ATRegion2_src_addr                                          
00000000  __TI_ATRegion2_trg_addr                                          
00000000  __TI_static_base__                                               
00000000  interruptVectors                                                 
000000c1  _ZN7Chassis7HandlerEv                                            
00000200  __STACK_SIZE                                                     
00000501  arm_sin_cos_f32                                                  
000007f1  _ZN10Controller7HandlerEv                                        
00000ab5  _ZN7Chassis7processEv                                            
00000d4d  _ZN3IMU8get_dataEv                                               
00000f95  _ZN6Remote12process_dataEv                                       
00001161  atanf                                                            
00001329  _ZN9N20_Motor16output_intensityEv                                
000014d5  __aeabi_dsub                                                     
000014d5  __subdf3                                                         
000014df  __adddf3                                                         
000014df  __aeabi_dadd                                                     
00001667  __aeabi_idiv0                                                    
00001669  imu963ra_init                                                    
000017e9  task_handler                                                     
0000195d  atan2f                                                           
00001a8d  SYSCFG_DL_GPIO_init                                              
00001bb9  _ZN9N20_Motor17measure_parameterEv                               
00001cd9  _ZN3IMU4initEv                                                   
00001ded  DL_Timer_initPWMMode                                             
00001efd  __aeabi_ddiv                                                     
00001efd  __divdf3                                                         
00002009  _ZN7LS7366R4initEhh                                              
000020fd  DL_SYSCTL_configSYSPLL                                           
000021e9  DL_TimerA_initPWMMode                                            
000022d5  __aeabi_dmul                                                     
000022d5  __muldf3                                                         
000023b9  __aeabi_fsub                                                     
000023b9  __subsf3                                                         
000023c3  __addsf3                                                         
000023c3  __aeabi_fadd                                                     
00002491  SYSCFG_DL_initPower                                              
00002565  setup                                                            
00002639  _Z10test_powerv                                                  
000026f9  _ZN3CCD7SI_sendEv                                                
000027b9  loop                                                             
00002879  UART0_IRQHandler                                                 
00002929  _ZN7LS7366R7HandlerEv                                            
000029d9  sqrtf                                                            
00002a81  _ZN14PID_Controller7HandlerEv                                    
00002b25  SYSCFG_DL_ADC_CCD_init                                           
00002c51  __aeabi_fmul                                                     
00002c51  __mulsf3                                                         
00002cdd  SYSCFG_DL_PWM_MOTOR0_init                                        
00002d65  SYSCFG_DL_TIM_CCD_init                                           
00002ded  SYSCFG_DL_PWM_MOTOR1_init                                        
00002ef5  __aeabi_fdiv                                                     
00002ef5  __divsf3                                                         
00002f77  spi_read_8bit_registers                                          
00002ff9  __TI_decompress_lzss                                             
000030e7  SYSCFG_DL_DMA_init                                               
000030f1  __aeabi_d2f                                                      
000030f1  __truncdfsf2                                                     
00003165  _Z14signal_Handlerv                                              
000031d5  imu963ra_get_mag                                                 
00003245  SYSCFG_DL_ADC_VIN_init                                           
000032ad  spi_read_8bit_register                                           
00003315  DL_SYSCTL_setHFCLKSourceHFXTParams                               
00003379  SYSCFG_DL_init                                                   
000033dd  __aeabi_fcmpeq                                                   
000033f1  __aeabi_fcmplt                                                   
00003405  __aeabi_fcmple                                                   
00003419  __aeabi_fcmpge                                                   
0000342d  __aeabi_fcmpgt                                                   
00003441  SYSCFG_DL_PWM_BUZZER_init                                        
000034a1  SPI_transmitData                                                 
000034fd  _ZN7ChassisC1EP9N20_MotorS1_P3IMUP3CCDf                          
000034fd  _ZN7ChassisC2EP9N20_MotorS1_P3IMUP3CCDf                          
000035a9  SYSCFG_DL_UART_0_init                                            
000035fd  __TI_auto_init_nobinit                                           
00003651  ADC1_IRQHandler                                                  
000036f1  SysTick_Handler                                                  
0000382d  DL_ADC12_setClockConfig                                          
00003879  DL_SYSCTL_switchMCLKfromSYSOSCtoHSCLK                            
000038c5  DL_UART_init                                                     
000039f3  _Z13UART_TransmitP9UART_RegsPht                                  
00003a3d  _ZN9N20_MotorC1EP12GPTIMER_Regs17DL_TIMER_CC_INDEXS2_P7Encoderfff
00003a3d  _ZN9N20_MotorC2EP12GPTIMER_Regs17DL_TIMER_CC_INDEXS2_P7Encoderfff
00003a89  __aeabi_d2iz                                                     
00003a89  __fixdfsi                                                        
00003ad5  DL_SPI_init                                                      
00003b1d  SYSCFG_DL_SYSCTL_init                                            
00003b65  _ZN3CCD7HandlerEv                                                
00003bad  _ZN7LS7366R5resetEv                                              
00003bf5  imu963ra_get_acc                                                 
00003c3d  imu963ra_get_gyro                                                
00003c85  DL_DMA_initChannel                                               
00003d11  DL_Timer_setCaptureCompareOutCtl                                 
00003d51  SYSCFG_DL_SPI_ENCODER_init                                       
00003d91  SYSCFG_DL_SPI_IMU_init                                           
00003e51  _ZN10ControllerC1EP7Chassis                                      
00003e51  _ZN10ControllerC2EP7Chassis                                      
00003e91  __aeabi_uidiv                                                    
00003e91  __aeabi_uidivmod                                                 
00003ed1  __aeabi_f2d                                                      
00003ed1  __extendsfdf2                                                    
00003f11  DL_Timer_setCaptureCompareCtl                                    
00003f4d  _ZN14PID_ControllerC1EP7Chassis                                  
00003f4d  _ZN14PID_ControllerC2EP7Chassis                                  
00003f89  __aeabi_i2f                                                      
00003f89  __floatsisf                                                      
00003fc5  __gesf2                                                          
00003fc5  __gtsf2                                                          
00004001  __cmpsf2                                                         
00004001  __eqsf2                                                          
00004001  __lesf2                                                          
00004001  __ltsf2                                                          
00004001  __nesf2                                                          
0000403d  __muldsi3                                                        
00004159  __aeabi_f2iz                                                     
00004159  __fixsfsi                                                        
00004191  DL_Timer_setCaptCompUpdateMethod                                 
000041c5  DL_Timer_setCaptureCompareAction                                 
000041f9  DL_Timer_setCaptureCompareInput                                  
0000422d  DL_Timer_setClockConfig                                          
000042fd  spi_write_8bit_register                                          
000043c1  _ZN7Encoder15overflow_updateEv                                   
000043f1  ADC0_IRQHandler                                                  
00004449  DL_Timer_setCaptureCompareValue                                  
000044f9  __aeabi_i2d                                                      
000044f9  __floatsidf                                                      
000046b5  _ZN7Encoder7HandlerEv                                            
000046dd  _ZN7LS7366RC1EP8SPI_RegsP9GPIO_Regsjj                            
000046dd  _ZN7LS7366RC2EP8SPI_RegsP9GPIO_Regsjj                            
0000472d  __aeabi_ui2f                                                     
0000472d  __floatunsisf                                                    
00004755  delay_ms                                                         
0000477d  _c_int00_noargs                                                  
000047f1  _ZN6RemoteC1EP9UART_Regs                                         
000047f1  _ZN6RemoteC2EP9UART_Regs                                         
0000483d  DL_SPI_setClockConfig                                            
00004861  DL_UART_setClockConfig                                           
000048a9  _ZN3CCD4initEv                                                   
000048cd  _ZN9N20_Motor12pwm_set_dutyE17DL_TIMER_CC_INDEXt                 
000048f1  _ZN3CCDC2Ev                                                      
00004913  _ZN3IMUC2Ev                                                      
00004a31  _ZN3IMU7HandlerEv                                                
00004b4d  TIMG12_IRQHandler                                                
00004b9f  _ZN7EncoderC1EPl                                                 
00004b9f  _ZN7EncoderC2EPl                                                 
00004d81  SYSCFG_DL_DMA_CH0_init                                           
00004eb9  _ZN9N20_Motor7HandlerEv                                          
00004f01  main                                                             
00004fc9  __TI_zero_init_nomemset                                          
00004fdf  DL_Common_delayCycles                                            
00005081  _Z26register_LEFT_QEI_callbackPFvvE                              
00005095  _Z27register_RIGHT_QEI_callbackPFvvE                             
000050a9  _Z5atan2B6v15007ff                                               
00005135  _ZN5MotorC2Ev                                                    
00005149  _ZN6Remote7HandlerEv                                             
000051bf  _ZN6Buzzer4stopEv                                                
000051d1  _ZN6Buzzer5startEv                                               
000051e3  _ZN9N20_Motor4initEv                                             
000051f5  TI_memcpy_small                                                  
00005207  __TI_decompress_none                                             
00005249  SYSCFG_DL_SYSTICK_init                                           
00005259  _Z16LEFT_QEI_Handlerv                                            
00005269  _Z17RIGHT_QEI_Handlerv                                           
00005279  _ZN6BuzzerC1EP12GPTIMER_Regs                                     
00005279  _ZN6BuzzerC2EP12GPTIMER_Regs                                     
000052b5  __aeabi_errno_addr                                               
000052bd  __aeabi_memcpy                                                   
000052bd  __aeabi_memcpy4                                                  
000052bd  __aeabi_memcpy8                                                  
000052dd  AES_IRQHandler                                                   
000052dd  CANFD0_IRQHandler                                                
000052dd  DAC0_IRQHandler                                                  
000052dd  DMA_IRQHandler                                                   
000052dd  Default_Handler                                                  
000052dd  GROUP0_IRQHandler                                                
000052dd  GROUP1_IRQHandler                                                
000052dd  HardFault_Handler                                                
000052dd  I2C0_IRQHandler                                                  
000052dd  I2C1_IRQHandler                                                  
000052dd  NMI_Handler                                                      
000052dd  PendSV_Handler                                                   
000052dd  RTC_IRQHandler                                                   
000052dd  SPI0_IRQHandler                                                  
000052dd  SPI1_IRQHandler                                                  
000052dd  SVC_Handler                                                      
000052dd  TIMA0_IRQHandler                                                 
000052dd  TIMA1_IRQHandler                                                 
000052dd  TIMG0_IRQHandler                                                 
000052dd  TIMG6_IRQHandler                                                 
000052dd  TIMG7_IRQHandler                                                 
000052dd  TIMG8_IRQHandler                                                 
000052dd  UART1_IRQHandler                                                 
000052dd  UART2_IRQHandler                                                 
000052dd  UART3_IRQHandler                                                 
000052f5  Reset_Handler                                                    
00005309  _system_pre_init                                                 
0000530c  C$$EXIT                                                          
0000530d  abort                                                            
00005310  sinTable_f32                                                     
00005bd8  SHT$$INIT_ARRAY$$Base                                            
00005bdc  SHT$$INIT_ARRAY$$Limit                                           
00005e24  __TI_Handler_Table_Base                                          
00005e30  __TI_Handler_Table_Limit                                         
00005e38  __TI_CINIT_Base                                                  
00005e48  __TI_CINIT_Limit                                                 
00005e48  __TI_CINIT_Warm                                                  
20200000  __start___llvm_prf_bits                                          
20200000  __start___llvm_prf_cnts                                          
20200000  __stop___llvm_prf_bits                                           
20200000  __stop___llvm_prf_cnts                                           
20200000  chassis                                                          
202002d8  ccd_norm                                                         
202004d8  ccd                                                              
2020066c  remote                                                           
20200748  temp_rx                                                          
202007c8  controller                                                       
20200818  imu                                                              
20200868  pid_controller                                                   
20200894  left_motor                                                       
202008bc  right_motor                                                      
202008e4  ls7366r                                                          
20200908  left_encoder                                                     
2020091c  right_encoder                                                    
20200930  imu963ra_transition_factor                                       
2020093c  ADC_VIN_cnt                                                      
20200940  ADC_cnt                                                          
20200944  CCD_cnt                                                          
20200948  DMA_EN_cnt                                                       
20200950  __aeabi_errno                                                    
20200954  buzzer                                                           
20200958  crc_err                                                          
2020095c  imu963ra_state                                                   
20200960  remote_cnt                                                       
20200964  uart1_cnt                                                        
20200968  uart1_state                                                      
2020096c  utick                                                            
20200970  vin                                                              
20200974  crc1                                                             
20200976  end_flag                                                         
20200978  imu963ra_acc_x                                                   
2020097a  imu963ra_acc_y                                                   
2020097c  imu963ra_acc_z                                                   
2020097e  imu963ra_gyro_x                                                  
20200980  imu963ra_gyro_y                                                  
20200982  imu963ra_gyro_z                                                  
20200984  imu963ra_mag_x                                                   
20200986  imu963ra_mag_y                                                   
20200988  imu963ra_mag_z                                                   
2020098a  power_vin                                                        
2020098c  start_flag                                                       
2020098e  uart1_rx_len                                                     
20200991  gCheckADC                                                        
20200992  signal_en_flag                                                   
20200994  gPWM_MOTOR0Backup                                                
20200a50  gPWM_MOTOR1Backup                                                
20200b0c  uart1_rx_buf                                                     
20200b70  gSPI_ENCODERBackup                                               
20200b98  gSPI_IMUBackup                                                   
20200bc0  LEFT_QEI_callback                                                
20200bc4  RIGHT_QEI_callback                                               
20200bc8  crc                                                              
20207e00  __stack                                                          
20208000  __STACK_END                                                      
ffffffff  __TI_pprof_out_hndl                                              
ffffffff  __TI_prof_data_size                                              
ffffffff  __TI_prof_data_start                                             
ffffffff  __binit__                                                        
ffffffff  binit                                                            
UNDEFED   __mpu_init                                                       
UNDEFED   _system_post_cinit                                               

[277 symbols]
